; Listing generated by Microsoft (R) Optimizing Compiler Version 19.16.27048.0 

include listing.inc

INCLUDELIB MSVCRTD
INCLUDELIB OLDNAMES

PUBLIC	?staticMetaObject@UserLogin@@2UQMetaObject@@B	; UserLogin::staticMetaObject
PUBLIC	?qt_static_metacall@UserLogin@@CAXPEAVQObject@@W4Call@QMetaObject@@HPEAPEAX@Z ; UserLogin::qt_static_metacall
EXTRN	?staticMetaObject@BasicWindow@@2UQMetaObject@@B:BYTE ; BasicWindow::staticMetaObject
CONST	SEGMENT
$SG148550 DB	'e:\qt\5.9.6\msvc2017_64\include\qtcore\qmetatype.h', 00H
	ORG $+13
$SG148551 DB	'qRegisterNormalizedMetaType was called with a not normal'
	DB	'ized type name, please call qRegisterMetaType instead.', 00H
	ORG $+1
$SG148552 DB	'qRegisterNormalizedMetaType', 00H
	ORG $+4
$SG150562 DB	'e:\qt\5.9.6\msvc2017_64\include\qtcore\qmetatype.h', 00H
	ORG $+13
$SG150563 DB	'qRegisterNormalizedMetaType was called with a not normal'
	DB	'ized type name, please call qRegisterMetaType instead.', 00H
	ORG $+1
$SG150564 DB	'qRegisterNormalizedMetaType', 00H
	ORG $+4
$SG150857 DB	'e:\qt\5.9.6\msvc2017_64\include\qtcore\qmetatype.h', 00H
	ORG $+13
$SG150858 DB	'qRegisterNormalizedMetaType was called with a not normal'
	DB	'ized type name, please call qRegisterMetaType instead.', 00H
	ORG $+1
$SG150859 DB	'qRegisterNormalizedMetaType', 00H
	ORG $+4
$SG151152 DB	'e:\qt\5.9.6\msvc2017_64\include\qtcore\qmetatype.h', 00H
	ORG $+13
$SG151153 DB	'qRegisterNormalizedMetaType was called with a not normal'
	DB	'ized type name, please call qRegisterMetaType instead.', 00H
	ORG $+1
$SG151154 DB	'qRegisterNormalizedMetaType', 00H
	ORG $+4
$SG151929 DB	'e:\qt\5.9.6\msvc2017_64\include\qtcore\qmetatype.h', 00H
	ORG $+13
$SG151930 DB	'qRegisterNormalizedMetaType was called with a not normal'
	DB	'ized type name, please call qRegisterMetaType instead.', 00H
	ORG $+1
$SG151931 DB	'qRegisterNormalizedMetaType', 00H
	ORG $+4
$SG152224 DB	'e:\qt\5.9.6\msvc2017_64\include\qtcore\qmetatype.h', 00H
	ORG $+13
$SG152225 DB	'qRegisterNormalizedMetaType was called with a not normal'
	DB	'ized type name, please call qRegisterMetaType instead.', 00H
	ORG $+1
$SG152226 DB	'qRegisterNormalizedMetaType', 00H
	ORG $+4
$SG152519 DB	'e:\qt\5.9.6\msvc2017_64\include\qtcore\qmetatype.h', 00H
	ORG $+13
$SG152520 DB	'qRegisterNormalizedMetaType was called with a not normal'
	DB	'ized type name, please call qRegisterMetaType instead.', 00H
	ORG $+1
$SG152521 DB	'qRegisterNormalizedMetaType', 00H
	ORG $+4
$SG152863 DB	'e:\qt\5.9.6\msvc2017_64\include\qtcore\qmetatype.h', 00H
	ORG $+13
$SG152864 DB	'qRegisterNormalizedMetaType was called with a not normal'
	DB	'ized type name, please call qRegisterMetaType instead.', 00H
	ORG $+1
$SG152865 DB	'qRegisterNormalizedMetaType', 00H
	ORG $+4
?staticMetaObject@UserLogin@@2UQMetaObject@@B DQ FLAT:?staticMetaObject@BasicWindow@@2UQMetaObject@@B ; UserLogin::staticMetaObject
	DQ	FLAT:?qt_meta_stringdata_UserLogin@@3Uqt_meta_stringdata_UserLogin_t@@B
	DQ	FLAT:?qt_meta_data_UserLogin@@3QBIB
	DQ	FLAT:?qt_static_metacall@UserLogin@@CAXPEAVQObject@@W4Call@QMetaObject@@HPEAPEAX@Z
	DQ	0000000000000000H
	DQ	0000000000000000H
?qt_meta_stringdata_UserLogin@@3Uqt_meta_stringdata_UserLogin_t@@B DD 0ffffffffH ; qt_meta_stringdata_UserLogin
	DD	09H
	DD	00H
	ORG $+4
	DQ	00000000000000d8H
	DD	0ffffffffH
	DD	011H
	DD	00H
	ORG $+4
	DQ	00000000000000caH
	DD	0ffffffffH
	DD	00H
	DD	00H
	ORG $+4
	DQ	00000000000000c4H
	DD	0ffffffffH
	DD	0cH
	DD	00H
	ORG $+4
	DQ	00000000000000adH
	DD	0ffffffffH
	DD	011H
	DD	00H
	ORG $+4
	DQ	00000000000000a2H
	DD	0ffffffffH
	DD	05H
	DD	00H
	ORG $+4
	DQ	000000000000009cH
	DD	0ffffffffH
	DD	0eH
	DD	00H
	ORG $+4
	DQ	000000000000008aH
	DD	0ffffffffH
	DD	08H
	DD	00H
	ORG $+4
	DQ	0000000000000081H
	DD	0ffffffffH
	DD	0aH
	DD	00H
	ORG $+4
	DQ	0000000000000072H
	DB	055H
	DB	073H
	DB	065H
	DB	072H
	DB	04cH
	DB	06fH
	DB	067H
	DB	069H
	DB	06eH
	DB	00H
	DB	06fH
	DB	06eH
	DB	04cH
	DB	06fH
	DB	067H
	DB	069H
	DB	06eH
	DB	042H
	DB	074H
	DB	06eH
	DB	043H
	DB	06cH
	DB	069H
	DB	063H
	DB	06bH
	DB	065H
	DB	064H
	DB	00H
	DB	00H
	DB	063H
	DB	06fH
	DB	06eH
	DB	06eH
	DB	065H
	DB	063H
	DB	074H
	DB	04dH
	DB	079H
	DB	053H
	DB	071H
	DB	06cH
	DB	00H
	DB	076H
	DB	065H
	DB	072H
	DB	079H
	DB	066H
	DB	079H
	DB	041H
	DB	063H
	DB	063H
	DB	06fH
	DB	075H
	DB	06eH
	DB	074H
	DB	043H
	DB	06fH
	DB	064H
	DB	065H
	DB	00H
	DB	062H
	DB	06fH
	DB	06fH
	DB	06cH
	DB	026H
	DB	00H
	DB	069H
	DB	073H
	DB	041H
	DB	063H
	DB	063H
	DB	06fH
	DB	075H
	DB	06eH
	DB	074H
	DB	04cH
	DB	06fH
	DB	067H
	DB	069H
	DB	06eH
	DB	00H
	DB	051H
	DB	053H
	DB	074H
	DB	072H
	DB	069H
	DB	06eH
	DB	067H
	DB	026H
	DB	00H
	DB	073H
	DB	074H
	DB	072H
	DB	041H
	DB	063H
	DB	063H
	DB	06fH
	DB	075H
	DB	06eH
	DB	074H
	DB	00H
	ORG $+3
?qt_meta_data_UserLogin@@3QBIB DD 07H			; qt_meta_data_UserLogin
	DD	00H
	DD	00H
	DD	00H
	DD	03H
	DD	0eH
	DD	00H
	DD	00H
	DD	00H
	DD	00H
	DD	00H
	DD	00H
	DD	00H
	DD	00H
	DD	01H
	DD	00H
	DD	01dH
	DD	02H
	DD	08H
	DD	03H
	DD	00H
	DD	01eH
	DD	02H
	DD	08H
	DD	04H
	DD	02H
	DD	01fH
	DD	02H
	DD	08H
	DD	02bH
	DD	01H
	DD	01H
	DD	080000005H
	DD	080000007H
	DD	06H
	DD	08H
	DD	00H
CONST	ENDS
PUBLIC	?__empty_global_delete@@YAXPEAX@Z		; __empty_global_delete
PUBLIC	?__empty_global_delete@@YAXPEAX_K@Z		; __empty_global_delete
PUBLIC	??C?$QScopedPointer@VQObjectData@@U?$QScopedPointerDeleter@VQObjectData@@@@@@QEBAPEAVQObjectData@@XZ ; QScopedPointer<QObjectData,QScopedPointerDeleter<QObjectData> >::operator->
PUBLIC	?metaObject@UserLogin@@UEBAPEBUQMetaObject@@XZ	; UserLogin::metaObject
PUBLIC	?qt_metacast@UserLogin@@UEAAPEAXPEBD@Z		; UserLogin::qt_metacast
PUBLIC	?qt_metacall@UserLogin@@UEAAHW4Call@QMetaObject@@HPEAPEAX@Z ; UserLogin::qt_metacall
PUBLIC	??$move@AEA_N@std@@YA$$QEA_NAEA_N@Z		; std::move<bool &>
EXTRN	strcmp:PROC
EXTRN	__imp_?dynamicMetaObject@QObjectData@@QEBAPEAUQMetaObject@@XZ:PROC
EXTRN	?qt_metacast@BasicWindow@@UEAAPEAXPEBD@Z:PROC	; BasicWindow::qt_metacast
EXTRN	?qt_metacall@BasicWindow@@UEAAHW4Call@QMetaObject@@HPEAPEAX@Z:PROC ; BasicWindow::qt_metacall
EXTRN	?onLoginBtnClicked@UserLogin@@AEAAXXZ:PROC	; UserLogin::onLoginBtnClicked
EXTRN	?connectMySql@UserLogin@@AEAA_NXZ:PROC		; UserLogin::connectMySql
EXTRN	?veryfyAccountCode@UserLogin@@AEAA_NAEA_NAEAVQString@@@Z:PROC ; UserLogin::veryfyAccountCode
pdata	SEGMENT
$pdata$?metaObject@UserLogin@@UEBAPEBUQMetaObject@@XZ DD imagerel $LN5
	DD	imagerel $LN5+88
	DD	imagerel $unwind$?metaObject@UserLogin@@UEBAPEBUQMetaObject@@XZ
$pdata$?qt_metacast@UserLogin@@UEAAPEAXPEBD@Z DD imagerel $LN5
	DD	imagerel $LN5+74
	DD	imagerel $unwind$?qt_metacast@UserLogin@@UEAAPEAXPEBD@Z
$pdata$?qt_metacall@UserLogin@@UEAAHW4Call@QMetaObject@@HPEAPEAX@Z DD imagerel $LN9
	DD	imagerel $LN9+173
	DD	imagerel $unwind$?qt_metacall@UserLogin@@UEAAHW4Call@QMetaObject@@HPEAPEAX@Z
$pdata$?qt_static_metacall@UserLogin@@CAXPEAVQObject@@W4Call@QMetaObject@@HPEAPEAX@Z DD imagerel $LN12
	DD	imagerel $LN12+272
	DD	imagerel $unwind$?qt_static_metacall@UserLogin@@CAXPEAVQObject@@W4Call@QMetaObject@@HPEAPEAX@Z
pdata	ENDS
xdata	SEGMENT
$unwind$?metaObject@UserLogin@@UEBAPEBUQMetaObject@@XZ DD 010901H
	DD	06209H
$unwind$?qt_metacast@UserLogin@@UEAAPEAXPEBD@Z DD 010e01H
	DD	0420eH
$unwind$?qt_metacall@UserLogin@@UEAAHW4Call@QMetaObject@@HPEAPEAX@Z DD 011701H
	DD	04217H
$unwind$?qt_static_metacall@UserLogin@@CAXPEAVQObject@@W4Call@QMetaObject@@HPEAPEAX@Z DD 011701H
	DD	06217H
xdata	ENDS
; Function compile flags: /Odtp
;	COMDAT ??$move@AEA_N@std@@YA$$QEA_NAEA_N@Z
_TEXT	SEGMENT
_Arg$ = 8
??$move@AEA_N@std@@YA$$QEA_NAEA_N@Z PROC		; std::move<bool &>, COMDAT
; File c:\program files (x86)\microsoft visual studio\2017\community\vc\tools\msvc\14.16.27023\include\type_traits
; Line 1588
	mov	QWORD PTR [rsp+8], rcx
; Line 1589
	mov	rax, QWORD PTR _Arg$[rsp]
; Line 1590
	ret	0
??$move@AEA_N@std@@YA$$QEA_NAEA_N@Z ENDP		; std::move<bool &>
_TEXT	ENDS
; Function compile flags: /Odtp
_TEXT	SEGMENT
_r$1 = 32
_r$2 = 33
tv69 = 36
_t$3 = 40
_o$ = 64
_c$ = 72
_id$ = 80
_a$ = 88
?qt_static_metacall@UserLogin@@CAXPEAVQObject@@W4Call@QMetaObject@@HPEAPEAX@Z PROC ; UserLogin::qt_static_metacall
; File d:\qtvs\qtqq\qtqq\x64\debug\moc\moc_userlogin.cpp
; Line 78
$LN12:
	mov	QWORD PTR [rsp+32], r9
	mov	DWORD PTR [rsp+24], r8d
	mov	DWORD PTR [rsp+16], edx
	mov	QWORD PTR [rsp+8], rcx
	sub	rsp, 56					; 00000038H
; Line 79
	cmp	DWORD PTR _c$[rsp], 0
	jne	$LN4@qt_static_
; Line 80
	mov	rax, QWORD PTR _o$[rsp]
	mov	QWORD PTR _t$3[rsp], rax
; Line 82
	mov	eax, DWORD PTR _id$[rsp]
	mov	DWORD PTR tv69[rsp], eax
	cmp	DWORD PTR tv69[rsp], 0
	je	SHORT $LN5@qt_static_
	cmp	DWORD PTR tv69[rsp], 1
	je	SHORT $LN6@qt_static_
	cmp	DWORD PTR tv69[rsp], 2
	je	SHORT $LN8@qt_static_
	jmp	$LN10@qt_static_
$LN5@qt_static_:
; Line 83
	mov	rcx, QWORD PTR _t$3[rsp]
	call	?onLoginBtnClicked@UserLogin@@AEAAXXZ	; UserLogin::onLoginBtnClicked
	jmp	$LN2@qt_static_
$LN6@qt_static_:
; Line 84
	mov	rcx, QWORD PTR _t$3[rsp]
	call	?connectMySql@UserLogin@@AEAA_NXZ	; UserLogin::connectMySql
	mov	BYTE PTR _r$1[rsp], al
; Line 85
	mov	eax, 8
	imul	rax, rax, 0
	mov	rcx, QWORD PTR _a$[rsp]
	cmp	QWORD PTR [rcx+rax], 0
	je	SHORT $LN7@qt_static_
	lea	rcx, QWORD PTR _r$1[rsp]
	call	??$move@AEA_N@std@@YA$$QEA_NAEA_N@Z	; std::move<bool &>
	mov	ecx, 8
	imul	rcx, rcx, 0
	mov	rdx, QWORD PTR _a$[rsp]
	mov	rcx, QWORD PTR [rdx+rcx]
	movzx	eax, BYTE PTR [rax]
	mov	BYTE PTR [rcx], al
$LN7@qt_static_:
	jmp	SHORT $LN2@qt_static_
$LN8@qt_static_:
; Line 86
	mov	eax, 8
	imul	rax, rax, 2
	mov	ecx, 8
	imul	rcx, rcx, 1
	mov	rdx, QWORD PTR _a$[rsp]
	mov	r8, QWORD PTR [rdx+rax]
	mov	rax, QWORD PTR _a$[rsp]
	mov	rdx, QWORD PTR [rax+rcx]
	mov	rcx, QWORD PTR _t$3[rsp]
	call	?veryfyAccountCode@UserLogin@@AEAA_NAEA_NAEAVQString@@@Z ; UserLogin::veryfyAccountCode
	mov	BYTE PTR _r$2[rsp], al
; Line 87
	mov	eax, 8
	imul	rax, rax, 0
	mov	rcx, QWORD PTR _a$[rsp]
	cmp	QWORD PTR [rcx+rax], 0
	je	SHORT $LN9@qt_static_
	lea	rcx, QWORD PTR _r$2[rsp]
	call	??$move@AEA_N@std@@YA$$QEA_NAEA_N@Z	; std::move<bool &>
	mov	ecx, 8
	imul	rcx, rcx, 0
	mov	rdx, QWORD PTR _a$[rsp]
	mov	rcx, QWORD PTR [rdx+rcx]
	movzx	eax, BYTE PTR [rax]
	mov	BYTE PTR [rcx], al
$LN9@qt_static_:
$LN10@qt_static_:
$LN2@qt_static_:
$LN4@qt_static_:
; Line 91
	add	rsp, 56					; 00000038H
	ret	0
?qt_static_metacall@UserLogin@@CAXPEAVQObject@@W4Call@QMetaObject@@HPEAPEAX@Z ENDP ; UserLogin::qt_static_metacall
_TEXT	ENDS
; Function compile flags: /Odtp
_TEXT	SEGMENT
this$ = 48
_c$ = 56
_id$ = 64
_a$ = 72
?qt_metacall@UserLogin@@UEAAHW4Call@QMetaObject@@HPEAPEAX@Z PROC ; UserLogin::qt_metacall
; File d:\qtvs\qtqq\qtqq\x64\debug\moc\moc_userlogin.cpp
; Line 113
$LN9:
	mov	QWORD PTR [rsp+32], r9
	mov	DWORD PTR [rsp+24], r8d
	mov	DWORD PTR [rsp+16], edx
	mov	QWORD PTR [rsp+8], rcx
	sub	rsp, 40					; 00000028H
; Line 114
	mov	r9, QWORD PTR _a$[rsp]
	mov	r8d, DWORD PTR _id$[rsp]
	mov	edx, DWORD PTR _c$[rsp]
	mov	rcx, QWORD PTR this$[rsp]
	call	?qt_metacall@BasicWindow@@UEAAHW4Call@QMetaObject@@HPEAPEAX@Z ; BasicWindow::qt_metacall
	mov	DWORD PTR _id$[rsp], eax
; Line 115
	cmp	DWORD PTR _id$[rsp], 0
	jge	SHORT $LN2@qt_metacal
; Line 116
	mov	eax, DWORD PTR _id$[rsp]
	jmp	SHORT $LN1@qt_metacal
$LN2@qt_metacal:
; Line 117
	cmp	DWORD PTR _c$[rsp], 0
	jne	SHORT $LN3@qt_metacal
; Line 118
	cmp	DWORD PTR _id$[rsp], 3
	jge	SHORT $LN5@qt_metacal
; Line 119
	mov	r9, QWORD PTR _a$[rsp]
	mov	r8d, DWORD PTR _id$[rsp]
	mov	edx, DWORD PTR _c$[rsp]
	mov	rcx, QWORD PTR this$[rsp]
	call	?qt_static_metacall@UserLogin@@CAXPEAVQObject@@W4Call@QMetaObject@@HPEAPEAX@Z ; UserLogin::qt_static_metacall
$LN5@qt_metacal:
; Line 120
	mov	eax, DWORD PTR _id$[rsp]
	sub	eax, 3
	mov	DWORD PTR _id$[rsp], eax
	jmp	SHORT $LN4@qt_metacal
$LN3@qt_metacal:
; Line 121
	cmp	DWORD PTR _c$[rsp], 12
	jne	SHORT $LN6@qt_metacal
; Line 122
	cmp	DWORD PTR _id$[rsp], 3
	jge	SHORT $LN7@qt_metacal
; Line 123
	mov	eax, 8
	imul	rax, rax, 0
	mov	rcx, QWORD PTR _a$[rsp]
	mov	rax, QWORD PTR [rcx+rax]
	mov	DWORD PTR [rax], -1
$LN7@qt_metacal:
; Line 124
	mov	eax, DWORD PTR _id$[rsp]
	sub	eax, 3
	mov	DWORD PTR _id$[rsp], eax
$LN6@qt_metacal:
$LN4@qt_metacal:
; Line 126
	mov	eax, DWORD PTR _id$[rsp]
$LN1@qt_metacal:
; Line 127
	add	rsp, 40					; 00000028H
	ret	0
?qt_metacall@UserLogin@@UEAAHW4Call@QMetaObject@@HPEAPEAX@Z ENDP ; UserLogin::qt_metacall
_TEXT	ENDS
; Function compile flags: /Odtp
_TEXT	SEGMENT
this$ = 48
_clname$ = 56
?qt_metacast@UserLogin@@UEAAPEAXPEBD@Z PROC		; UserLogin::qt_metacast
; File d:\qtvs\qtqq\qtqq\x64\debug\moc\moc_userlogin.cpp
; Line 105
$LN5:
	mov	QWORD PTR [rsp+16], rdx
	mov	QWORD PTR [rsp+8], rcx
	sub	rsp, 40					; 00000028H
; Line 106
	cmp	QWORD PTR _clname$[rsp], 0
	jne	SHORT $LN2@qt_metacas
	xor	eax, eax
	jmp	SHORT $LN1@qt_metacas
$LN2@qt_metacas:
; Line 107
	lea	rdx, OFFSET FLAT:?qt_meta_stringdata_UserLogin@@3Uqt_meta_stringdata_UserLogin_t@@B+216
	mov	rcx, QWORD PTR _clname$[rsp]
	call	strcmp
	test	eax, eax
	jne	SHORT $LN3@qt_metacas
; Line 108
	mov	rax, QWORD PTR this$[rsp]
	jmp	SHORT $LN1@qt_metacas
$LN3@qt_metacas:
; Line 109
	mov	rdx, QWORD PTR _clname$[rsp]
	mov	rcx, QWORD PTR this$[rsp]
	call	?qt_metacast@BasicWindow@@UEAAPEAXPEBD@Z ; BasicWindow::qt_metacast
$LN1@qt_metacas:
; Line 110
	add	rsp, 40					; 00000028H
	ret	0
?qt_metacast@UserLogin@@UEAAPEAXPEBD@Z ENDP		; UserLogin::qt_metacast
_TEXT	ENDS
; Function compile flags: /Odtp
_TEXT	SEGMENT
tv82 = 32
this$ = 64
?metaObject@UserLogin@@UEBAPEBUQMetaObject@@XZ PROC	; UserLogin::metaObject
; File d:\qtvs\qtqq\qtqq\x64\debug\moc\moc_userlogin.cpp
; Line 100
$LN5:
	mov	QWORD PTR [rsp+8], rcx
	sub	rsp, 56					; 00000038H
; Line 101
	mov	rax, QWORD PTR this$[rsp]
	add	rax, 8
	mov	rcx, rax
	call	??C?$QScopedPointer@VQObjectData@@U?$QScopedPointerDeleter@VQObjectData@@@@@@QEBAPEAVQObjectData@@XZ ; QScopedPointer<QObjectData,QScopedPointerDeleter<QObjectData> >::operator->
	cmp	QWORD PTR [rax+40], 0
	je	SHORT $LN3@metaObject
	mov	rax, QWORD PTR this$[rsp]
	add	rax, 8
	mov	rcx, rax
	call	??C?$QScopedPointer@VQObjectData@@U?$QScopedPointerDeleter@VQObjectData@@@@@@QEBAPEAVQObjectData@@XZ ; QScopedPointer<QObjectData,QScopedPointerDeleter<QObjectData> >::operator->
	mov	rcx, rax
	call	QWORD PTR __imp_?dynamicMetaObject@QObjectData@@QEBAPEAUQMetaObject@@XZ
	mov	QWORD PTR tv82[rsp], rax
	jmp	SHORT $LN4@metaObject
$LN3@metaObject:
	lea	rax, OFFSET FLAT:?staticMetaObject@UserLogin@@2UQMetaObject@@B ; UserLogin::staticMetaObject
	mov	QWORD PTR tv82[rsp], rax
$LN4@metaObject:
	mov	rax, QWORD PTR tv82[rsp]
; Line 102
	add	rsp, 56					; 00000038H
	ret	0
?metaObject@UserLogin@@UEBAPEBUQMetaObject@@XZ ENDP	; UserLogin::metaObject
_TEXT	ENDS
; Function compile flags: /Odtp
;	COMDAT ??C?$QScopedPointer@VQObjectData@@U?$QScopedPointerDeleter@VQObjectData@@@@@@QEBAPEAVQObjectData@@XZ
_TEXT	SEGMENT
this$ = 8
??C?$QScopedPointer@VQObjectData@@U?$QScopedPointerDeleter@VQObjectData@@@@@@QEBAPEAVQObjectData@@XZ PROC ; QScopedPointer<QObjectData,QScopedPointerDeleter<QObjectData> >::operator->, COMDAT
; File e:\qt\5.9.6\msvc2017_64\include\qtcore\qscopedpointer.h
; Line 117
	mov	QWORD PTR [rsp+8], rcx
; Line 118
	mov	rax, QWORD PTR this$[rsp]
	mov	rax, QWORD PTR [rax]
; Line 119
	ret	0
??C?$QScopedPointer@VQObjectData@@U?$QScopedPointerDeleter@VQObjectData@@@@@@QEBAPEAVQObjectData@@XZ ENDP ; QScopedPointer<QObjectData,QScopedPointerDeleter<QObjectData> >::operator->
_TEXT	ENDS
; Function compile flags: /Odtp
;	COMDAT ?__empty_global_delete@@YAXPEAX_K@Z
_TEXT	SEGMENT
__formal$ = 8
__formal$ = 16
?__empty_global_delete@@YAXPEAX_K@Z PROC		; __empty_global_delete, COMDAT
; File d:\qtvs\qtqq\qtqq\x64\debug\moc\moc_userlogin.cpp
; Line 130
	mov	QWORD PTR [rsp+16], rdx
	mov	QWORD PTR [rsp+8], rcx
	ret	0
?__empty_global_delete@@YAXPEAX_K@Z ENDP		; __empty_global_delete
_TEXT	ENDS
; Function compile flags: /Odtp
;	COMDAT ?__empty_global_delete@@YAXPEAX@Z
_TEXT	SEGMENT
__formal$ = 8
?__empty_global_delete@@YAXPEAX@Z PROC			; __empty_global_delete, COMDAT
; File d:\qtvs\qtqq\qtqq\x64\debug\moc\moc_userlogin.cpp
; Line 130
	mov	QWORD PTR [rsp+8], rcx
	ret	0
?__empty_global_delete@@YAXPEAX@Z ENDP			; __empty_global_delete
_TEXT	ENDS
END
