; Listing generated by Microsoft (R) Optimizing Compiler Version 19.16.27048.0 

include listing.inc

INCLUDELIB MSVCRTD
INCLUDELIB OLDNAMES

CONST	SEGMENT
?qt_meta_stringdata_TitleBar@@3Uqt_meta_stringdata_TitleBar_t@@B DD 0ffffffffH ; qt_meta_stringdata_TitleBar
	DD	08H
	DD	00H
	ORG $+4
	DQ	00000000000000f0H
	DD	0ffffffffH
	DD	016H
	DD	00H
	ORG $+4
	DQ	00000000000000e1H
	DD	0ffffffffH
	DD	00H
	DD	00H
	ORG $+4
	DQ	00000000000000e0H
	DD	0ffffffffH
	DD	01aH
	DD	00H
	ORG $+4
	DQ	00000000000000c9H
	DD	0ffffffffH
	DD	016H
	DD	00H
	ORG $+4
	DQ	00000000000000ccH
	DD	0ffffffffH
	DD	018H
	DD	00H
	ORG $+4
	DQ	00000000000000cbH
	DD	0ffffffffH
	DD	012H
	DD	00H
	ORG $+4
	DQ	00000000000000ccH
	DD	0ffffffffH
	DD	016H
	DD	00H
	ORG $+4
	DQ	00000000000000c7H
	DD	0ffffffffH
	DD	012H
	DD	00H
	ORG $+4
	DQ	00000000000000c6H
	DD	0ffffffffH
	DD	014H
	DD	00H
	ORG $+4
	DQ	00000000000000c1H
	DB	054H
	DB	069H
	DB	074H
	DB	06cH
	DB	065H
	DB	042H
	DB	061H
	DB	072H
	DB	00H
	DB	073H
	DB	069H
	DB	067H
	DB	06eH
	DB	061H
	DB	06cH
	DB	042H
	DB	075H
	DB	074H
	DB	074H
	DB	06fH
	DB	06eH
	DB	04dH
	DB	069H
	DB	06eH
	DB	043H
	DB	06cH
	DB	069H
	DB	063H
	DB	06bH
	DB	065H
	DB	064H
	DB	00H
	DB	00H
	DB	073H
	DB	069H
	DB	067H
	DB	06eH
	DB	061H
	DB	06cH
	DB	042H
	DB	075H
	DB	074H
	DB	074H
	DB	06fH
	DB	06eH
	DB	052H
	DB	065H
	DB	073H
	DB	074H
	DB	06fH
	DB	072H
	DB	065H
	DB	043H
	DB	06cH
	DB	069H
	DB	063H
	DB	06bH
	DB	065H
	DB	064H
	DB	00H
	DB	073H
	DB	069H
	DB	067H
	DB	06eH
	DB	061H
	DB	06cH
	DB	042H
	DB	075H
	DB	074H
	DB	074H
	DB	06fH
	DB	06eH
	DB	04dH
	DB	061H
	DB	078H
	DB	043H
	DB	06cH
	DB	069H
	DB	063H
	DB	06bH
	DB	065H
	DB	064H
	DB	00H
	DB	073H
	DB	069H
	DB	067H
	DB	06eH
	DB	061H
	DB	06cH
	DB	042H
	DB	075H
	DB	074H
	DB	074H
	DB	06fH
	DB	06eH
	DB	043H
	DB	06cH
	DB	06fH
	DB	073H
	DB	065H
	DB	043H
	DB	06cH
	DB	069H
	DB	063H
	DB	06bH
	DB	065H
	DB	064H
	DB	00H
	DB	06fH
	DB	06eH
	DB	042H
	DB	075H
	DB	074H
	DB	074H
	DB	06fH
	DB	06eH
	DB	04dH
	DB	069H
	DB	06eH
	DB	043H
	DB	06cH
	DB	069H
	DB	063H
	DB	06bH
	DB	065H
	DB	064H
	DB	00H
	DB	06fH
	DB	06eH
	DB	042H
	DB	075H
	DB	074H
	DB	074H
	DB	06fH
	DB	06eH
	DB	052H
	DB	065H
	DB	073H
	DB	074H
	DB	06fH
	DB	072H
	DB	065H
	DB	043H
	DB	06cH
	DB	069H
	DB	063H
	DB	06bH
	DB	065H
	DB	064H
	DB	00H
	DB	06fH
	DB	06eH
	DB	042H
	DB	075H
	DB	074H
	DB	074H
	DB	06fH
	DB	06eH
	DB	04dH
	DB	061H
	DB	078H
	DB	043H
	DB	06cH
	DB	069H
	DB	063H
	DB	06bH
	DB	065H
	DB	064H
	DB	00H
	DB	06fH
	DB	06eH
	DB	042H
	DB	075H
	DB	074H
	DB	074H
	DB	06fH
	DB	06eH
	DB	043H
	DB	06cH
	DB	06fH
	DB	073H
	DB	065H
	DB	043H
	DB	06cH
	DB	069H
	DB	063H
	DB	06bH
	DB	065H
	DB	064H
	DB	00H
	ORG $+2
?qt_meta_data_TitleBar@@3QBIB DD 07H			; qt_meta_data_TitleBar
	DD	00H
	DD	00H
	DD	00H
	DD	08H
	DD	0eH
	DD	00H
	DD	00H
	DD	00H
	DD	00H
	DD	00H
	DD	00H
	DD	00H
	DD	04H
	DD	01H
	DD	00H
	DD	036H
	DD	02H
	DD	06H
	DD	03H
	DD	00H
	DD	037H
	DD	02H
	DD	06H
	DD	04H
	DD	00H
	DD	038H
	DD	02H
	DD	06H
	DD	05H
	DD	00H
	DD	039H
	DD	02H
	DD	06H
	DD	06H
	DD	00H
	DD	03aH
	DD	02H
	DD	08H
	DD	07H
	DD	00H
	DD	03bH
	DD	02H
	DD	08H
	DD	08H
	DD	00H
	DD	03cH
	DD	02H
	DD	08H
	DD	09H
	DD	00H
	DD	03dH
	DD	02H
	DD	08H
	DD	02bH
	DD	02bH
	DD	02bH
	DD	02bH
	DD	02bH
	DD	02bH
	DD	02bH
	DD	02bH
	DD	00H
	ORG $+4
$SG125979 DB	'e:\qt\5.9.6\msvc2017_64\include\qtcore\qmetatype.h', 00H
	ORG $+13
$SG125980 DB	'qRegisterNormalizedMetaType was called with a not normal'
	DB	'ized type name, please call qRegisterMetaType instead.', 00H
	ORG $+1
$SG125981 DB	'qRegisterNormalizedMetaType', 00H
	ORG $+4
$SG126274 DB	'e:\qt\5.9.6\msvc2017_64\include\qtcore\qmetatype.h', 00H
	ORG $+13
$SG126275 DB	'qRegisterNormalizedMetaType was called with a not normal'
	DB	'ized type name, please call qRegisterMetaType instead.', 00H
	ORG $+1
$SG126276 DB	'qRegisterNormalizedMetaType', 00H
	ORG $+4
$SG126569 DB	'e:\qt\5.9.6\msvc2017_64\include\qtcore\qmetatype.h', 00H
	ORG $+13
$SG126570 DB	'qRegisterNormalizedMetaType was called with a not normal'
	DB	'ized type name, please call qRegisterMetaType instead.', 00H
	ORG $+1
$SG126571 DB	'qRegisterNormalizedMetaType', 00H
CONST	ENDS
PUBLIC	?__empty_global_delete@@YAXPEAX@Z		; __empty_global_delete
PUBLIC	?__empty_global_delete@@YAXPEAX_K@Z		; __empty_global_delete
PUBLIC	??C?$QScopedPointer@VQObjectData@@U?$QScopedPointerDeleter@VQObjectData@@@@@@QEBAPEAVQObjectData@@XZ ; QScopedPointer<QObjectData,QScopedPointerDeleter<QObjectData> >::operator->
PUBLIC	?metaObject@TitleBar@@UEBAPEBUQMetaObject@@XZ	; TitleBar::metaObject
PUBLIC	?qt_metacast@TitleBar@@UEAAPEAXPEBD@Z		; TitleBar::qt_metacast
PUBLIC	?qt_metacall@TitleBar@@UEAAHW4Call@QMetaObject@@HPEAPEAX@Z ; TitleBar::qt_metacall
PUBLIC	?qt_static_metacall@TitleBar@@CAXPEAVQObject@@W4Call@QMetaObject@@HPEAPEAX@Z ; TitleBar::qt_static_metacall
PUBLIC	?signalButtonMinClicked@TitleBar@@QEAAXXZ	; TitleBar::signalButtonMinClicked
PUBLIC	?signalButtonRestoreClicked@TitleBar@@QEAAXXZ	; TitleBar::signalButtonRestoreClicked
PUBLIC	?signalButtonMaxClicked@TitleBar@@QEAAXXZ	; TitleBar::signalButtonMaxClicked
PUBLIC	?signalButtonCloseClicked@TitleBar@@QEAAXXZ	; TitleBar::signalButtonCloseClicked
PUBLIC	?staticMetaObject@TitleBar@@2UQMetaObject@@B	; TitleBar::staticMetaObject
EXTRN	strcmp:PROC
EXTRN	__imp_?activate@QMetaObject@@SAXPEAVQObject@@PEBU1@HPEAPEAX@Z:PROC
EXTRN	__imp_?dynamicMetaObject@QObjectData@@QEBAPEAUQMetaObject@@XZ:PROC
EXTRN	__imp_?qt_metacast@QWidget@@UEAAPEAXPEBD@Z:PROC
EXTRN	__imp_?qt_metacall@QWidget@@UEAAHW4Call@QMetaObject@@HPEAPEAX@Z:PROC
EXTRN	?onButtonMinClicked@TitleBar@@AEAAXXZ:PROC	; TitleBar::onButtonMinClicked
EXTRN	?onButtonRestoreClicked@TitleBar@@AEAAXXZ:PROC	; TitleBar::onButtonRestoreClicked
EXTRN	?onButtonMaxClicked@TitleBar@@AEAAXXZ:PROC	; TitleBar::onButtonMaxClicked
EXTRN	?onButtonCloseClicked@TitleBar@@AEAAXXZ:PROC	; TitleBar::onButtonCloseClicked
EXTRN	__imp_?staticMetaObject@QWidget@@2UQMetaObject@@B:BYTE
EXTRN	__ImageBase:BYTE
_BSS	SEGMENT
?staticMetaObject@TitleBar@@2UQMetaObject@@B DB 030H DUP (?) ; TitleBar::staticMetaObject
_BSS	ENDS
pdata	SEGMENT
$pdata$?metaObject@TitleBar@@UEBAPEBUQMetaObject@@XZ DD imagerel $LN5
	DD	imagerel $LN5+88
	DD	imagerel $unwind$?metaObject@TitleBar@@UEBAPEBUQMetaObject@@XZ
$pdata$?qt_metacast@TitleBar@@UEAAPEAXPEBD@Z DD imagerel $LN5
	DD	imagerel $LN5+75
	DD	imagerel $unwind$?qt_metacast@TitleBar@@UEAAPEAXPEBD@Z
$pdata$?qt_metacall@TitleBar@@UEAAHW4Call@QMetaObject@@HPEAPEAX@Z DD imagerel $LN9
	DD	imagerel $LN9+174
	DD	imagerel $unwind$?qt_metacall@TitleBar@@UEAAHW4Call@QMetaObject@@HPEAPEAX@Z
$pdata$?qt_static_metacall@TitleBar@@CAXPEAVQObject@@W4Call@QMetaObject@@HPEAPEAX@Z DD imagerel $LN34
	DD	imagerel $LN34+872
	DD	imagerel $unwind$?qt_static_metacall@TitleBar@@CAXPEAVQObject@@W4Call@QMetaObject@@HPEAPEAX@Z
$pdata$?signalButtonMinClicked@TitleBar@@QEAAXXZ DD imagerel $LN3
	DD	imagerel $LN3+38
	DD	imagerel $unwind$?signalButtonMinClicked@TitleBar@@QEAAXXZ
$pdata$?signalButtonRestoreClicked@TitleBar@@QEAAXXZ DD imagerel $LN3
	DD	imagerel $LN3+41
	DD	imagerel $unwind$?signalButtonRestoreClicked@TitleBar@@QEAAXXZ
$pdata$?signalButtonMaxClicked@TitleBar@@QEAAXXZ DD imagerel $LN3
	DD	imagerel $LN3+41
	DD	imagerel $unwind$?signalButtonMaxClicked@TitleBar@@QEAAXXZ
$pdata$?signalButtonCloseClicked@TitleBar@@QEAAXXZ DD imagerel $LN3
	DD	imagerel $LN3+41
	DD	imagerel $unwind$?signalButtonCloseClicked@TitleBar@@QEAAXXZ
pdata	ENDS
CRT$XCU	SEGMENT
??staticMetaObject$initializer$@TitleBar@@2P6AXXZEA@@3P6AXXZEA DQ FLAT:??__E?staticMetaObject@TitleBar@@2UQMetaObject@@B@@YAXXZ ; ??staticMetaObject$initializer$@TitleBar@@2P6AXXZEA@@3P6AXXZEA
CRT$XCU	ENDS
xdata	SEGMENT
$unwind$?metaObject@TitleBar@@UEBAPEBUQMetaObject@@XZ DD 010901H
	DD	06209H
$unwind$?qt_metacast@TitleBar@@UEAAPEAXPEBD@Z DD 010e01H
	DD	0420eH
$unwind$?qt_metacall@TitleBar@@UEAAHW4Call@QMetaObject@@HPEAPEAX@Z DD 011701H
	DD	04217H
$unwind$?qt_static_metacall@TitleBar@@CAXPEAVQObject@@W4Call@QMetaObject@@HPEAPEAX@Z DD 021a01H
	DD	013011aH
$unwind$?signalButtonMinClicked@TitleBar@@QEAAXXZ DD 010901H
	DD	04209H
$unwind$?signalButtonRestoreClicked@TitleBar@@QEAAXXZ DD 010901H
	DD	04209H
$unwind$?signalButtonMaxClicked@TitleBar@@QEAAXXZ DD 010901H
	DD	04209H
$unwind$?signalButtonCloseClicked@TitleBar@@QEAAXXZ DD 010901H
	DD	04209H
xdata	ENDS
; Function compile flags: /Odtp
;	COMDAT ??__E?staticMetaObject@TitleBar@@2UQMetaObject@@B@@YAXXZ
text$di	SEGMENT
??__E?staticMetaObject@TitleBar@@2UQMetaObject@@B@@YAXXZ PROC ; `dynamic initializer for 'TitleBar::staticMetaObject'', COMDAT
; File d:\qtvs\qtqq\qtqq\x64\debug\moc\moc_titlebar.cpp
; Line 145
	mov	rax, QWORD PTR __imp_?staticMetaObject@QWidget@@2UQMetaObject@@B
	mov	QWORD PTR ?staticMetaObject@TitleBar@@2UQMetaObject@@B, rax
	lea	rax, OFFSET FLAT:?qt_meta_stringdata_TitleBar@@3Uqt_meta_stringdata_TitleBar_t@@B
	mov	QWORD PTR ?staticMetaObject@TitleBar@@2UQMetaObject@@B+8, rax
; Line 146
	lea	rax, OFFSET FLAT:?qt_meta_data_TitleBar@@3QBIB
	mov	QWORD PTR ?staticMetaObject@TitleBar@@2UQMetaObject@@B+16, rax
	lea	rax, OFFSET FLAT:?qt_static_metacall@TitleBar@@CAXPEAVQObject@@W4Call@QMetaObject@@HPEAPEAX@Z ; TitleBar::qt_static_metacall
	mov	QWORD PTR ?staticMetaObject@TitleBar@@2UQMetaObject@@B+24, rax
	mov	QWORD PTR ?staticMetaObject@TitleBar@@2UQMetaObject@@B+32, 0
	mov	QWORD PTR ?staticMetaObject@TitleBar@@2UQMetaObject@@B+40, 0
	ret	0
??__E?staticMetaObject@TitleBar@@2UQMetaObject@@B@@YAXXZ ENDP ; `dynamic initializer for 'TitleBar::staticMetaObject''
text$di	ENDS
; Function compile flags: /Odtp
_TEXT	SEGMENT
this$ = 48
?signalButtonCloseClicked@TitleBar@@QEAAXXZ PROC	; TitleBar::signalButtonCloseClicked
; File d:\qtvs\qtqq\qtqq\x64\debug\moc\moc_titlebar.cpp
; Line 200
$LN3:
	mov	QWORD PTR [rsp+8], rcx
	sub	rsp, 40					; 00000028H
; Line 201
	xor	r9d, r9d
	mov	r8d, 3
	lea	rdx, OFFSET FLAT:?staticMetaObject@TitleBar@@2UQMetaObject@@B ; TitleBar::staticMetaObject
	mov	rcx, QWORD PTR this$[rsp]
	call	QWORD PTR __imp_?activate@QMetaObject@@SAXPEAVQObject@@PEBU1@HPEAPEAX@Z
; Line 202
	add	rsp, 40					; 00000028H
	ret	0
?signalButtonCloseClicked@TitleBar@@QEAAXXZ ENDP	; TitleBar::signalButtonCloseClicked
_TEXT	ENDS
; Function compile flags: /Odtp
_TEXT	SEGMENT
this$ = 48
?signalButtonMaxClicked@TitleBar@@QEAAXXZ PROC		; TitleBar::signalButtonMaxClicked
; File d:\qtvs\qtqq\qtqq\x64\debug\moc\moc_titlebar.cpp
; Line 194
$LN3:
	mov	QWORD PTR [rsp+8], rcx
	sub	rsp, 40					; 00000028H
; Line 195
	xor	r9d, r9d
	mov	r8d, 2
	lea	rdx, OFFSET FLAT:?staticMetaObject@TitleBar@@2UQMetaObject@@B ; TitleBar::staticMetaObject
	mov	rcx, QWORD PTR this$[rsp]
	call	QWORD PTR __imp_?activate@QMetaObject@@SAXPEAVQObject@@PEBU1@HPEAPEAX@Z
; Line 196
	add	rsp, 40					; 00000028H
	ret	0
?signalButtonMaxClicked@TitleBar@@QEAAXXZ ENDP		; TitleBar::signalButtonMaxClicked
_TEXT	ENDS
; Function compile flags: /Odtp
_TEXT	SEGMENT
this$ = 48
?signalButtonRestoreClicked@TitleBar@@QEAAXXZ PROC	; TitleBar::signalButtonRestoreClicked
; File d:\qtvs\qtqq\qtqq\x64\debug\moc\moc_titlebar.cpp
; Line 188
$LN3:
	mov	QWORD PTR [rsp+8], rcx
	sub	rsp, 40					; 00000028H
; Line 189
	xor	r9d, r9d
	mov	r8d, 1
	lea	rdx, OFFSET FLAT:?staticMetaObject@TitleBar@@2UQMetaObject@@B ; TitleBar::staticMetaObject
	mov	rcx, QWORD PTR this$[rsp]
	call	QWORD PTR __imp_?activate@QMetaObject@@SAXPEAVQObject@@PEBU1@HPEAPEAX@Z
; Line 190
	add	rsp, 40					; 00000028H
	ret	0
?signalButtonRestoreClicked@TitleBar@@QEAAXXZ ENDP	; TitleBar::signalButtonRestoreClicked
_TEXT	ENDS
; Function compile flags: /Odtp
_TEXT	SEGMENT
this$ = 48
?signalButtonMinClicked@TitleBar@@QEAAXXZ PROC		; TitleBar::signalButtonMinClicked
; File d:\qtvs\qtqq\qtqq\x64\debug\moc\moc_titlebar.cpp
; Line 182
$LN3:
	mov	QWORD PTR [rsp+8], rcx
	sub	rsp, 40					; 00000028H
; Line 183
	xor	r9d, r9d
	xor	r8d, r8d
	lea	rdx, OFFSET FLAT:?staticMetaObject@TitleBar@@2UQMetaObject@@B ; TitleBar::staticMetaObject
	mov	rcx, QWORD PTR this$[rsp]
	call	QWORD PTR __imp_?activate@QMetaObject@@SAXPEAVQObject@@PEBU1@HPEAPEAX@Z
; Line 184
	add	rsp, 40					; 00000028H
	ret	0
?signalButtonMinClicked@TitleBar@@QEAAXXZ ENDP		; TitleBar::signalButtonMinClicked
_TEXT	ENDS
; Function compile flags: /Odtp
_TEXT	SEGMENT
_t$1 = 32
tv69 = 40
tv94 = 44
tv140 = 48
tv154 = 52
tv168 = 56
result$2 = 64
$T3 = 72
$T4 = 88
$T5 = 104
$T6 = 120
_o$ = 160
_c$ = 168
_id$ = 176
_a$ = 184
?qt_static_metacall@TitleBar@@CAXPEAVQObject@@W4Call@QMetaObject@@HPEAPEAX@Z PROC ; TitleBar::qt_static_metacall
; File d:\qtvs\qtqq\qtqq\x64\debug\moc\moc_titlebar.cpp
; Line 95
$LN34:
	mov	QWORD PTR [rsp+32], r9
	mov	DWORD PTR [rsp+24], r8d
	mov	DWORD PTR [rsp+16], edx
	mov	QWORD PTR [rsp+8], rcx
	sub	rsp, 152				; 00000098H
; Line 96
	cmp	DWORD PTR _c$[rsp], 0
	jne	$LN4@qt_static_
; Line 97
	mov	rax, QWORD PTR _o$[rsp]
	mov	QWORD PTR _t$1[rsp], rax
; Line 99
	mov	eax, DWORD PTR _id$[rsp]
	mov	DWORD PTR tv69[rsp], eax
	cmp	DWORD PTR tv69[rsp], 7
	ja	SHORT $LN14@qt_static_
	movsxd	rax, DWORD PTR tv69[rsp]
	lea	rcx, OFFSET FLAT:__ImageBase
	mov	eax, DWORD PTR $LN33@qt_static_[rcx+rax*4]
	add	rax, rcx
	jmp	rax
$LN6@qt_static_:
; Line 100
	mov	rcx, QWORD PTR _t$1[rsp]
	call	?signalButtonMinClicked@TitleBar@@QEAAXXZ ; TitleBar::signalButtonMinClicked
	jmp	SHORT $LN2@qt_static_
$LN7@qt_static_:
; Line 101
	mov	rcx, QWORD PTR _t$1[rsp]
	call	?signalButtonRestoreClicked@TitleBar@@QEAAXXZ ; TitleBar::signalButtonRestoreClicked
	jmp	SHORT $LN2@qt_static_
$LN8@qt_static_:
; Line 102
	mov	rcx, QWORD PTR _t$1[rsp]
	call	?signalButtonMaxClicked@TitleBar@@QEAAXXZ ; TitleBar::signalButtonMaxClicked
	jmp	SHORT $LN2@qt_static_
$LN9@qt_static_:
; Line 103
	mov	rcx, QWORD PTR _t$1[rsp]
	call	?signalButtonCloseClicked@TitleBar@@QEAAXXZ ; TitleBar::signalButtonCloseClicked
	jmp	SHORT $LN2@qt_static_
$LN10@qt_static_:
; Line 104
	mov	rcx, QWORD PTR _t$1[rsp]
	call	?onButtonMinClicked@TitleBar@@AEAAXXZ	; TitleBar::onButtonMinClicked
	jmp	SHORT $LN2@qt_static_
$LN11@qt_static_:
; Line 105
	mov	rcx, QWORD PTR _t$1[rsp]
	call	?onButtonRestoreClicked@TitleBar@@AEAAXXZ ; TitleBar::onButtonRestoreClicked
	jmp	SHORT $LN2@qt_static_
$LN12@qt_static_:
; Line 106
	mov	rcx, QWORD PTR _t$1[rsp]
	call	?onButtonMaxClicked@TitleBar@@AEAAXXZ	; TitleBar::onButtonMaxClicked
	jmp	SHORT $LN2@qt_static_
$LN13@qt_static_:
; Line 107
	mov	rcx, QWORD PTR _t$1[rsp]
	call	?onButtonCloseClicked@TitleBar@@AEAAXXZ	; TitleBar::onButtonCloseClicked
$LN14@qt_static_:
$LN2@qt_static_:
; Line 110
	jmp	$LN5@qt_static_
$LN4@qt_static_:
	cmp	DWORD PTR _c$[rsp], 10
	jne	$LN15@qt_static_
; Line 111
	mov	eax, 8
	imul	rax, rax, 0
	mov	rcx, QWORD PTR _a$[rsp]
	mov	rax, QWORD PTR [rcx+rax]
	mov	QWORD PTR result$2[rsp], rax
; Line 114
	lea	rax, OFFSET FLAT:?signalButtonMinClicked@TitleBar@@QEAAXXZ ; TitleBar::signalButtonMinClicked
	mov	QWORD PTR $T3[rsp], rax
	mov	DWORD PTR $T3[rsp+8], 0
	mov	eax, 8
	imul	rax, rax, 1
	mov	rcx, QWORD PTR _a$[rsp]
	mov	rax, QWORD PTR [rcx+rax]
	mov	rcx, QWORD PTR $T3[rsp]
	cmp	QWORD PTR [rax], rcx
	jne	SHORT $LN22@qt_static_
	mov	eax, 8
	imul	rax, rax, 1
	mov	rcx, QWORD PTR _a$[rsp]
	mov	rax, QWORD PTR [rcx+rax]
	cmp	QWORD PTR [rax], 0
	je	SHORT $LN21@qt_static_
	mov	eax, 8
	imul	rax, rax, 1
	mov	rcx, QWORD PTR _a$[rsp]
	mov	rax, QWORD PTR [rcx+rax]
	mov	ecx, DWORD PTR $T3[rsp+8]
	cmp	DWORD PTR [rax+8], ecx
	jne	SHORT $LN22@qt_static_
$LN21@qt_static_:
	mov	DWORD PTR tv94[rsp], 1
	jmp	SHORT $LN23@qt_static_
$LN22@qt_static_:
	mov	DWORD PTR tv94[rsp], 0
$LN23@qt_static_:
	cmp	DWORD PTR tv94[rsp], 0
	je	SHORT $LN16@qt_static_
; Line 115
	mov	rax, QWORD PTR result$2[rsp]
	mov	DWORD PTR [rax], 0
; Line 116
	jmp	$LN1@qt_static_
$LN16@qt_static_:
; Line 121
	lea	rax, OFFSET FLAT:?signalButtonRestoreClicked@TitleBar@@QEAAXXZ ; TitleBar::signalButtonRestoreClicked
	mov	QWORD PTR $T4[rsp], rax
	mov	DWORD PTR $T4[rsp+8], 0
	mov	eax, 8
	imul	rax, rax, 1
	mov	rcx, QWORD PTR _a$[rsp]
	mov	rax, QWORD PTR [rcx+rax]
	mov	rcx, QWORD PTR $T4[rsp]
	cmp	QWORD PTR [rax], rcx
	jne	SHORT $LN25@qt_static_
	mov	eax, 8
	imul	rax, rax, 1
	mov	rcx, QWORD PTR _a$[rsp]
	mov	rax, QWORD PTR [rcx+rax]
	cmp	QWORD PTR [rax], 0
	je	SHORT $LN24@qt_static_
	mov	eax, 8
	imul	rax, rax, 1
	mov	rcx, QWORD PTR _a$[rsp]
	mov	rax, QWORD PTR [rcx+rax]
	mov	ecx, DWORD PTR $T4[rsp+8]
	cmp	DWORD PTR [rax+8], ecx
	jne	SHORT $LN25@qt_static_
$LN24@qt_static_:
	mov	DWORD PTR tv140[rsp], 1
	jmp	SHORT $LN26@qt_static_
$LN25@qt_static_:
	mov	DWORD PTR tv140[rsp], 0
$LN26@qt_static_:
	cmp	DWORD PTR tv140[rsp], 0
	je	SHORT $LN17@qt_static_
; Line 122
	mov	rax, QWORD PTR result$2[rsp]
	mov	DWORD PTR [rax], 1
; Line 123
	jmp	$LN1@qt_static_
$LN17@qt_static_:
; Line 128
	lea	rax, OFFSET FLAT:?signalButtonMaxClicked@TitleBar@@QEAAXXZ ; TitleBar::signalButtonMaxClicked
	mov	QWORD PTR $T5[rsp], rax
	mov	DWORD PTR $T5[rsp+8], 0
	mov	eax, 8
	imul	rax, rax, 1
	mov	rcx, QWORD PTR _a$[rsp]
	mov	rax, QWORD PTR [rcx+rax]
	mov	rcx, QWORD PTR $T5[rsp]
	cmp	QWORD PTR [rax], rcx
	jne	SHORT $LN28@qt_static_
	mov	eax, 8
	imul	rax, rax, 1
	mov	rcx, QWORD PTR _a$[rsp]
	mov	rax, QWORD PTR [rcx+rax]
	cmp	QWORD PTR [rax], 0
	je	SHORT $LN27@qt_static_
	mov	eax, 8
	imul	rax, rax, 1
	mov	rcx, QWORD PTR _a$[rsp]
	mov	rax, QWORD PTR [rcx+rax]
	mov	ecx, DWORD PTR $T5[rsp+8]
	cmp	DWORD PTR [rax+8], ecx
	jne	SHORT $LN28@qt_static_
$LN27@qt_static_:
	mov	DWORD PTR tv154[rsp], 1
	jmp	SHORT $LN29@qt_static_
$LN28@qt_static_:
	mov	DWORD PTR tv154[rsp], 0
$LN29@qt_static_:
	cmp	DWORD PTR tv154[rsp], 0
	je	SHORT $LN18@qt_static_
; Line 129
	mov	rax, QWORD PTR result$2[rsp]
	mov	DWORD PTR [rax], 2
; Line 130
	jmp	$LN1@qt_static_
$LN18@qt_static_:
; Line 135
	lea	rax, OFFSET FLAT:?signalButtonCloseClicked@TitleBar@@QEAAXXZ ; TitleBar::signalButtonCloseClicked
	mov	QWORD PTR $T6[rsp], rax
	mov	DWORD PTR $T6[rsp+8], 0
	mov	eax, 8
	imul	rax, rax, 1
	mov	rcx, QWORD PTR _a$[rsp]
	mov	rax, QWORD PTR [rcx+rax]
	mov	rcx, QWORD PTR $T6[rsp]
	cmp	QWORD PTR [rax], rcx
	jne	SHORT $LN31@qt_static_
	mov	eax, 8
	imul	rax, rax, 1
	mov	rcx, QWORD PTR _a$[rsp]
	mov	rax, QWORD PTR [rcx+rax]
	cmp	QWORD PTR [rax], 0
	je	SHORT $LN30@qt_static_
	mov	eax, 8
	imul	rax, rax, 1
	mov	rcx, QWORD PTR _a$[rsp]
	mov	rax, QWORD PTR [rcx+rax]
	mov	ecx, DWORD PTR $T6[rsp+8]
	cmp	DWORD PTR [rax+8], ecx
	jne	SHORT $LN31@qt_static_
$LN30@qt_static_:
	mov	DWORD PTR tv168[rsp], 1
	jmp	SHORT $LN32@qt_static_
$LN31@qt_static_:
	mov	DWORD PTR tv168[rsp], 0
$LN32@qt_static_:
	cmp	DWORD PTR tv168[rsp], 0
	je	SHORT $LN19@qt_static_
; Line 136
	mov	rax, QWORD PTR result$2[rsp]
	mov	DWORD PTR [rax], 3
$LN19@qt_static_:
$LN15@qt_static_:
$LN5@qt_static_:
$LN1@qt_static_:
; Line 142
	add	rsp, 152				; 00000098H
	ret	0
	npad	1
$LN33@qt_static_:
	DD	$LN6@qt_static_
	DD	$LN7@qt_static_
	DD	$LN8@qt_static_
	DD	$LN9@qt_static_
	DD	$LN10@qt_static_
	DD	$LN11@qt_static_
	DD	$LN12@qt_static_
	DD	$LN13@qt_static_
?qt_static_metacall@TitleBar@@CAXPEAVQObject@@W4Call@QMetaObject@@HPEAPEAX@Z ENDP ; TitleBar::qt_static_metacall
_TEXT	ENDS
; Function compile flags: /Odtp
_TEXT	SEGMENT
this$ = 48
_c$ = 56
_id$ = 64
_a$ = 72
?qt_metacall@TitleBar@@UEAAHW4Call@QMetaObject@@HPEAPEAX@Z PROC ; TitleBar::qt_metacall
; File d:\qtvs\qtqq\qtqq\x64\debug\moc\moc_titlebar.cpp
; Line 164
$LN9:
	mov	QWORD PTR [rsp+32], r9
	mov	DWORD PTR [rsp+24], r8d
	mov	DWORD PTR [rsp+16], edx
	mov	QWORD PTR [rsp+8], rcx
	sub	rsp, 40					; 00000028H
; Line 165
	mov	r9, QWORD PTR _a$[rsp]
	mov	r8d, DWORD PTR _id$[rsp]
	mov	edx, DWORD PTR _c$[rsp]
	mov	rcx, QWORD PTR this$[rsp]
	call	QWORD PTR __imp_?qt_metacall@QWidget@@UEAAHW4Call@QMetaObject@@HPEAPEAX@Z
	mov	DWORD PTR _id$[rsp], eax
; Line 166
	cmp	DWORD PTR _id$[rsp], 0
	jge	SHORT $LN2@qt_metacal
; Line 167
	mov	eax, DWORD PTR _id$[rsp]
	jmp	SHORT $LN1@qt_metacal
$LN2@qt_metacal:
; Line 168
	cmp	DWORD PTR _c$[rsp], 0
	jne	SHORT $LN3@qt_metacal
; Line 169
	cmp	DWORD PTR _id$[rsp], 8
	jge	SHORT $LN5@qt_metacal
; Line 170
	mov	r9, QWORD PTR _a$[rsp]
	mov	r8d, DWORD PTR _id$[rsp]
	mov	edx, DWORD PTR _c$[rsp]
	mov	rcx, QWORD PTR this$[rsp]
	call	?qt_static_metacall@TitleBar@@CAXPEAVQObject@@W4Call@QMetaObject@@HPEAPEAX@Z ; TitleBar::qt_static_metacall
$LN5@qt_metacal:
; Line 171
	mov	eax, DWORD PTR _id$[rsp]
	sub	eax, 8
	mov	DWORD PTR _id$[rsp], eax
	jmp	SHORT $LN4@qt_metacal
$LN3@qt_metacal:
; Line 172
	cmp	DWORD PTR _c$[rsp], 12
	jne	SHORT $LN6@qt_metacal
; Line 173
	cmp	DWORD PTR _id$[rsp], 8
	jge	SHORT $LN7@qt_metacal
; Line 174
	mov	eax, 8
	imul	rax, rax, 0
	mov	rcx, QWORD PTR _a$[rsp]
	mov	rax, QWORD PTR [rcx+rax]
	mov	DWORD PTR [rax], -1
$LN7@qt_metacal:
; Line 175
	mov	eax, DWORD PTR _id$[rsp]
	sub	eax, 8
	mov	DWORD PTR _id$[rsp], eax
$LN6@qt_metacal:
$LN4@qt_metacal:
; Line 177
	mov	eax, DWORD PTR _id$[rsp]
$LN1@qt_metacal:
; Line 178
	add	rsp, 40					; 00000028H
	ret	0
?qt_metacall@TitleBar@@UEAAHW4Call@QMetaObject@@HPEAPEAX@Z ENDP ; TitleBar::qt_metacall
_TEXT	ENDS
; Function compile flags: /Odtp
_TEXT	SEGMENT
this$ = 48
_clname$ = 56
?qt_metacast@TitleBar@@UEAAPEAXPEBD@Z PROC		; TitleBar::qt_metacast
; File d:\qtvs\qtqq\qtqq\x64\debug\moc\moc_titlebar.cpp
; Line 156
$LN5:
	mov	QWORD PTR [rsp+16], rdx
	mov	QWORD PTR [rsp+8], rcx
	sub	rsp, 40					; 00000028H
; Line 157
	cmp	QWORD PTR _clname$[rsp], 0
	jne	SHORT $LN2@qt_metacas
	xor	eax, eax
	jmp	SHORT $LN1@qt_metacas
$LN2@qt_metacas:
; Line 158
	lea	rdx, OFFSET FLAT:?qt_meta_stringdata_TitleBar@@3Uqt_meta_stringdata_TitleBar_t@@B+240
	mov	rcx, QWORD PTR _clname$[rsp]
	call	strcmp
	test	eax, eax
	jne	SHORT $LN3@qt_metacas
; Line 159
	mov	rax, QWORD PTR this$[rsp]
	jmp	SHORT $LN1@qt_metacas
$LN3@qt_metacas:
; Line 160
	mov	rdx, QWORD PTR _clname$[rsp]
	mov	rcx, QWORD PTR this$[rsp]
	call	QWORD PTR __imp_?qt_metacast@QWidget@@UEAAPEAXPEBD@Z
$LN1@qt_metacas:
; Line 161
	add	rsp, 40					; 00000028H
	ret	0
?qt_metacast@TitleBar@@UEAAPEAXPEBD@Z ENDP		; TitleBar::qt_metacast
_TEXT	ENDS
; Function compile flags: /Odtp
_TEXT	SEGMENT
tv82 = 32
this$ = 64
?metaObject@TitleBar@@UEBAPEBUQMetaObject@@XZ PROC	; TitleBar::metaObject
; File d:\qtvs\qtqq\qtqq\x64\debug\moc\moc_titlebar.cpp
; Line 151
$LN5:
	mov	QWORD PTR [rsp+8], rcx
	sub	rsp, 56					; 00000038H
; Line 152
	mov	rax, QWORD PTR this$[rsp]
	add	rax, 8
	mov	rcx, rax
	call	??C?$QScopedPointer@VQObjectData@@U?$QScopedPointerDeleter@VQObjectData@@@@@@QEBAPEAVQObjectData@@XZ ; QScopedPointer<QObjectData,QScopedPointerDeleter<QObjectData> >::operator->
	cmp	QWORD PTR [rax+40], 0
	je	SHORT $LN3@metaObject
	mov	rax, QWORD PTR this$[rsp]
	add	rax, 8
	mov	rcx, rax
	call	??C?$QScopedPointer@VQObjectData@@U?$QScopedPointerDeleter@VQObjectData@@@@@@QEBAPEAVQObjectData@@XZ ; QScopedPointer<QObjectData,QScopedPointerDeleter<QObjectData> >::operator->
	mov	rcx, rax
	call	QWORD PTR __imp_?dynamicMetaObject@QObjectData@@QEBAPEAUQMetaObject@@XZ
	mov	QWORD PTR tv82[rsp], rax
	jmp	SHORT $LN4@metaObject
$LN3@metaObject:
	lea	rax, OFFSET FLAT:?staticMetaObject@TitleBar@@2UQMetaObject@@B ; TitleBar::staticMetaObject
	mov	QWORD PTR tv82[rsp], rax
$LN4@metaObject:
	mov	rax, QWORD PTR tv82[rsp]
; Line 153
	add	rsp, 56					; 00000038H
	ret	0
?metaObject@TitleBar@@UEBAPEBUQMetaObject@@XZ ENDP	; TitleBar::metaObject
_TEXT	ENDS
; Function compile flags: /Odtp
;	COMDAT ??C?$QScopedPointer@VQObjectData@@U?$QScopedPointerDeleter@VQObjectData@@@@@@QEBAPEAVQObjectData@@XZ
_TEXT	SEGMENT
this$ = 8
??C?$QScopedPointer@VQObjectData@@U?$QScopedPointerDeleter@VQObjectData@@@@@@QEBAPEAVQObjectData@@XZ PROC ; QScopedPointer<QObjectData,QScopedPointerDeleter<QObjectData> >::operator->, COMDAT
; File e:\qt\5.9.6\msvc2017_64\include\qtcore\qscopedpointer.h
; Line 117
	mov	QWORD PTR [rsp+8], rcx
; Line 118
	mov	rax, QWORD PTR this$[rsp]
	mov	rax, QWORD PTR [rax]
; Line 119
	ret	0
??C?$QScopedPointer@VQObjectData@@U?$QScopedPointerDeleter@VQObjectData@@@@@@QEBAPEAVQObjectData@@XZ ENDP ; QScopedPointer<QObjectData,QScopedPointerDeleter<QObjectData> >::operator->
_TEXT	ENDS
; Function compile flags: /Odtp
;	COMDAT ?__empty_global_delete@@YAXPEAX_K@Z
_TEXT	SEGMENT
__formal$ = 8
__formal$ = 16
?__empty_global_delete@@YAXPEAX_K@Z PROC		; __empty_global_delete, COMDAT
; File d:\qtvs\qtqq\qtqq\x64\debug\moc\moc_titlebar.cpp
; Line 205
	mov	QWORD PTR [rsp+16], rdx
	mov	QWORD PTR [rsp+8], rcx
	ret	0
?__empty_global_delete@@YAXPEAX_K@Z ENDP		; __empty_global_delete
_TEXT	ENDS
; Function compile flags: /Odtp
;	COMDAT ?__empty_global_delete@@YAXPEAX@Z
_TEXT	SEGMENT
__formal$ = 8
?__empty_global_delete@@YAXPEAX@Z PROC			; __empty_global_delete, COMDAT
; File d:\qtvs\qtqq\qtqq\x64\debug\moc\moc_titlebar.cpp
; Line 205
	mov	QWORD PTR [rsp+8], rcx
	ret	0
?__empty_global_delete@@YAXPEAX@Z ENDP			; __empty_global_delete
_TEXT	ENDS
END
