; Listing generated by Microsoft (R) Optimizing Compiler Version 19.16.27048.0 

include listing.inc

INCLUDELIB MSVCRTD
INCLUDELIB OLDNAMES

CONST	SEGMENT
$SG155707 DB	'e:\qt\5.9.6\msvc2017_64\include\qtcore\qmetatype.h', 00H
	ORG $+13
$SG155708 DB	'qRegisterNormalizedMetaType was called with a not normal'
	DB	'ized type name, please call qRegisterMetaType instead.', 00H
	ORG $+1
$SG155709 DB	'qRegisterNormalizedMetaType', 00H
	ORG $+4
$SG156002 DB	'e:\qt\5.9.6\msvc2017_64\include\qtcore\qmetatype.h', 00H
	ORG $+13
$SG156003 DB	'qRegisterNormalizedMetaType was called with a not normal'
	DB	'ized type name, please call qRegisterMetaType instead.', 00H
	ORG $+1
$SG156004 DB	'qRegisterNormalizedMetaType', 00H
	ORG $+4
$SG156297 DB	'e:\qt\5.9.6\msvc2017_64\include\qtcore\qmetatype.h', 00H
	ORG $+13
$SG156298 DB	'qRegisterNormalizedMetaType was called with a not normal'
	DB	'ized type name, please call qRegisterMetaType instead.', 00H
	ORG $+1
$SG156299 DB	'qRegisterNormalizedMetaType', 00H
	ORG $+4
$SG157074 DB	'e:\qt\5.9.6\msvc2017_64\include\qtcore\qmetatype.h', 00H
	ORG $+13
$SG157075 DB	'qRegisterNormalizedMetaType was called with a not normal'
	DB	'ized type name, please call qRegisterMetaType instead.', 00H
	ORG $+1
$SG157076 DB	'qRegisterNormalizedMetaType', 00H
	ORG $+4
$SG157369 DB	'e:\qt\5.9.6\msvc2017_64\include\qtcore\qmetatype.h', 00H
	ORG $+13
$SG157370 DB	'qRegisterNormalizedMetaType was called with a not normal'
	DB	'ized type name, please call qRegisterMetaType instead.', 00H
	ORG $+1
$SG157371 DB	'qRegisterNormalizedMetaType', 00H
	ORG $+4
$SG157664 DB	'e:\qt\5.9.6\msvc2017_64\include\qtcore\qmetatype.h', 00H
	ORG $+13
$SG157665 DB	'qRegisterNormalizedMetaType was called with a not normal'
	DB	'ized type name, please call qRegisterMetaType instead.', 00H
	ORG $+1
$SG157666 DB	'qRegisterNormalizedMetaType', 00H
	ORG $+4
$SG158008 DB	'e:\qt\5.9.6\msvc2017_64\include\qtcore\qmetatype.h', 00H
	ORG $+13
$SG158009 DB	'qRegisterNormalizedMetaType was called with a not normal'
	DB	'ized type name, please call qRegisterMetaType instead.', 00H
	ORG $+1
$SG158010 DB	'qRegisterNormalizedMetaType', 00H
	ORG $+4
?qt_meta_stringdata_QtQQ_Server@@3Uqt_meta_stringdata_QtQQ_Server_t@@B DD 0ffffffffH ; qt_meta_stringdata_QtQQ_Server
	DD	0bH
	DD	00H
	ORG $+4
	DQ	0000000000000108H
	DD	0ffffffffH
	DD	0dH
	DD	00H
	ORG $+4
	DQ	00000000000000fcH
	DD	0ffffffffH
	DD	00H
	DD	00H
	ORG $+4
	DQ	00000000000000f2H
	DD	0ffffffffH
	DD	0bH
	DD	00H
	ORG $+4
	DQ	00000000000000dbH
	DD	0ffffffffH
	DD	06H
	DD	00H
	ORG $+4
	DQ	00000000000000cfH
	DD	0ffffffffH
	DD	09H
	DD	00H
	ORG $+4
	DQ	00000000000000beH
	DD	0ffffffffH
	DD	01dH
	DD	00H
	ORG $+4
	DQ	00000000000000b0H
	DD	0ffffffffH
	DD	015H
	DD	00H
	ORG $+4
	DQ	00000000000000b6H
	DD	0ffffffffH
	DD	014H
	DD	00H
	ORG $+4
	DQ	00000000000000b4H
	DD	0ffffffffH
	DD	01bH
	DD	00H
	ORG $+4
	DQ	00000000000000b1H
	DD	0ffffffffH
	DD	011H
	DD	00H
	ORG $+4
	DQ	00000000000000b5H
	DB	051H
	DB	074H
	DB	051H
	DB	051H
	DB	05fH
	DB	053H
	DB	065H
	DB	072H
	DB	076H
	DB	065H
	DB	072H
	DB	00H
	DB	06fH
	DB	06eH
	DB	055H
	DB	044H
	DB	050H
	DB	062H
	DB	072H
	DB	06fH
	DB	061H
	DB	064H
	DB	04dH
	DB	073H
	DB	067H
	DB	00H
	DB	00H
	DB	051H
	DB	042H
	DB	079H
	DB	074H
	DB	065H
	DB	041H
	DB	072H
	DB	072H
	DB	061H
	DB	079H
	DB	026H
	DB	00H
	DB	062H
	DB	074H
	DB	044H
	DB	061H
	DB	074H
	DB	061H
	DB	00H
	DB	06fH
	DB	06eH
	DB	052H
	DB	065H
	DB	066H
	DB	072H
	DB	065H
	DB	073H
	DB	068H
	DB	00H
	DB	06fH
	DB	06eH
	DB	05fH
	DB	071H
	DB	075H
	DB	065H
	DB	072H
	DB	079H
	DB	044H
	DB	065H
	DB	070H
	DB	061H
	DB	072H
	DB	074H
	DB	06dH
	DB	065H
	DB	06eH
	DB	074H
	DB	042H
	DB	074H
	DB	06eH
	DB	05fH
	DB	063H
	DB	06cH
	DB	069H
	DB	063H
	DB	06bH
	DB	065H
	DB	064H
	DB	00H
	DB	06fH
	DB	06eH
	DB	05fH
	DB	071H
	DB	075H
	DB	065H
	DB	072H
	DB	079H
	DB	049H
	DB	044H
	DB	042H
	DB	074H
	DB	06eH
	DB	05fH
	DB	063H
	DB	06cH
	DB	069H
	DB	063H
	DB	06bH
	DB	065H
	DB	064H
	DB	00H
	DB	06fH
	DB	06eH
	DB	05fH
	DB	06cH
	DB	06fH
	DB	067H
	DB	06fH
	DB	075H
	DB	074H
	DB	042H
	DB	074H
	DB	06eH
	DB	05fH
	DB	063H
	DB	06cH
	DB	069H
	DB	063H
	DB	06bH
	DB	065H
	DB	064H
	DB	00H
	DB	06fH
	DB	06eH
	DB	05fH
	DB	073H
	DB	065H
	DB	06cH
	DB	065H
	DB	063H
	DB	074H
	DB	050H
	DB	069H
	DB	063H
	DB	074H
	DB	075H
	DB	072H
	DB	065H
	DB	042H
	DB	074H
	DB	06eH
	DB	05fH
	DB	063H
	DB	06cH
	DB	069H
	DB	063H
	DB	06bH
	DB	065H
	DB	064H
	DB	00H
	DB	06fH
	DB	06eH
	DB	05fH
	DB	061H
	DB	064H
	DB	064H
	DB	042H
	DB	074H
	DB	06eH
	DB	05fH
	DB	063H
	DB	06cH
	DB	069H
	DB	063H
	DB	06bH
	DB	065H
	DB	064H
	DB	00H
	ORG $+1
	ORG $+8
?qt_meta_data_QtQQ_Server@@3QBIB DD 07H			; qt_meta_data_QtQQ_Server
	DD	00H
	DD	00H
	DD	00H
	DD	07H
	DD	0eH
	DD	00H
	DD	00H
	DD	00H
	DD	00H
	DD	00H
	DD	00H
	DD	00H
	DD	00H
	DD	01H
	DD	01H
	DD	031H
	DD	02H
	DD	08H
	DD	05H
	DD	00H
	DD	034H
	DD	02H
	DD	08H
	DD	06H
	DD	00H
	DD	035H
	DD	02H
	DD	08H
	DD	07H
	DD	00H
	DD	036H
	DD	02H
	DD	08H
	DD	08H
	DD	00H
	DD	037H
	DD	02H
	DD	08H
	DD	09H
	DD	00H
	DD	038H
	DD	02H
	DD	08H
	DD	0aH
	DD	00H
	DD	039H
	DD	02H
	DD	08H
	DD	02bH
	DD	080000003H
	DD	04H
	DD	02bH
	DD	02bH
	DD	02bH
	DD	02bH
	DD	02bH
	DD	02bH
	DD	00H
	ORG $+4
$SG158351 DB	'e:\qt\5.9.6\msvc2017_64\include\qtcore\qmetatype.h', 00H
	ORG $+13
$SG158352 DB	'qRegisterNormalizedMetaType was called with a not normal'
	DB	'ized type name, please call qRegisterMetaType instead.', 00H
	ORG $+1
$SG158353 DB	'qRegisterNormalizedMetaType', 00H
	ORG $+4
$SG158694 DB	'e:\qt\5.9.6\msvc2017_64\include\qtcore\qmetatype.h', 00H
	ORG $+13
$SG158695 DB	'qRegisterNormalizedMetaType was called with a not normal'
	DB	'ized type name, please call qRegisterMetaType instead.', 00H
	ORG $+1
$SG158696 DB	'qRegisterNormalizedMetaType', 00H
	ORG $+4
$SG153604 DB	'e:\qt\5.9.6\msvc2017_64\include\qtcore\qmetatype.h', 00H
	ORG $+13
$SG153605 DB	'qRegisterNormalizedMetaType was called with a not normal'
	DB	'ized type name, please call qRegisterMetaType instead.', 00H
	ORG $+1
$SG153606 DB	'qRegisterNormalizedMetaType', 00H
CONST	ENDS
PUBLIC	?__empty_global_delete@@YAXPEAX@Z		; __empty_global_delete
PUBLIC	?__empty_global_delete@@YAXPEAX_K@Z		; __empty_global_delete
PUBLIC	??C?$QScopedPointer@VQObjectData@@U?$QScopedPointerDeleter@VQObjectData@@@@@@QEBAPEAVQObjectData@@XZ ; QScopedPointer<QObjectData,QScopedPointerDeleter<QObjectData> >::operator->
PUBLIC	?metaObject@QtQQ_Server@@UEBAPEBUQMetaObject@@XZ ; QtQQ_Server::metaObject
PUBLIC	?qt_metacast@QtQQ_Server@@UEAAPEAXPEBD@Z	; QtQQ_Server::qt_metacast
PUBLIC	?qt_metacall@QtQQ_Server@@UEAAHW4Call@QMetaObject@@HPEAPEAX@Z ; QtQQ_Server::qt_metacall
PUBLIC	?qt_static_metacall@QtQQ_Server@@CAXPEAVQObject@@W4Call@QMetaObject@@HPEAPEAX@Z ; QtQQ_Server::qt_static_metacall
PUBLIC	?staticMetaObject@QtQQ_Server@@2UQMetaObject@@B	; QtQQ_Server::staticMetaObject
EXTRN	strcmp:PROC
EXTRN	__imp_?dynamicMetaObject@QObjectData@@QEBAPEAUQMetaObject@@XZ:PROC
EXTRN	__imp_?qt_metacast@QDialog@@UEAAPEAXPEBD@Z:PROC
EXTRN	__imp_?qt_metacall@QDialog@@UEAAHW4Call@QMetaObject@@HPEAPEAX@Z:PROC
EXTRN	?onUDPbroadMsg@QtQQ_Server@@AEAAXAEAVQByteArray@@@Z:PROC ; QtQQ_Server::onUDPbroadMsg
EXTRN	?onRefresh@QtQQ_Server@@AEAAXXZ:PROC		; QtQQ_Server::onRefresh
EXTRN	?on_queryDepartmentBtn_clicked@QtQQ_Server@@AEAAXXZ:PROC ; QtQQ_Server::on_queryDepartmentBtn_clicked
EXTRN	?on_queryIDBtn_clicked@QtQQ_Server@@AEAAXXZ:PROC ; QtQQ_Server::on_queryIDBtn_clicked
EXTRN	?on_logoutBtn_clicked@QtQQ_Server@@AEAAXXZ:PROC	; QtQQ_Server::on_logoutBtn_clicked
EXTRN	?on_selectPictureBtn_clicked@QtQQ_Server@@AEAAXXZ:PROC ; QtQQ_Server::on_selectPictureBtn_clicked
EXTRN	?on_addBtn_clicked@QtQQ_Server@@AEAAXXZ:PROC	; QtQQ_Server::on_addBtn_clicked
EXTRN	__imp_?staticMetaObject@QDialog@@2UQMetaObject@@B:BYTE
EXTRN	__ImageBase:BYTE
_BSS	SEGMENT
?staticMetaObject@QtQQ_Server@@2UQMetaObject@@B DB 030H DUP (?) ; QtQQ_Server::staticMetaObject
_BSS	ENDS
pdata	SEGMENT
$pdata$?metaObject@QtQQ_Server@@UEBAPEBUQMetaObject@@XZ DD imagerel $LN5
	DD	imagerel $LN5+88
	DD	imagerel $unwind$?metaObject@QtQQ_Server@@UEBAPEBUQMetaObject@@XZ
$pdata$?qt_metacast@QtQQ_Server@@UEAAPEAXPEBD@Z DD imagerel $LN5
	DD	imagerel $LN5+75
	DD	imagerel $unwind$?qt_metacast@QtQQ_Server@@UEAAPEAXPEBD@Z
$pdata$?qt_metacall@QtQQ_Server@@UEAAHW4Call@QMetaObject@@HPEAPEAX@Z DD imagerel $LN9
	DD	imagerel $LN9+174
	DD	imagerel $unwind$?qt_metacall@QtQQ_Server@@UEAAHW4Call@QMetaObject@@HPEAPEAX@Z
$pdata$?qt_static_metacall@QtQQ_Server@@CAXPEAVQObject@@W4Call@QMetaObject@@HPEAPEAX@Z DD imagerel $LN15
	DD	imagerel $LN15+216
	DD	imagerel $unwind$?qt_static_metacall@QtQQ_Server@@CAXPEAVQObject@@W4Call@QMetaObject@@HPEAPEAX@Z
pdata	ENDS
CRT$XCU	SEGMENT
??staticMetaObject$initializer$@QtQQ_Server@@2P6AXXZEA@@3P6AXXZEA DQ FLAT:??__E?staticMetaObject@QtQQ_Server@@2UQMetaObject@@B@@YAXXZ ; ??staticMetaObject$initializer$@QtQQ_Server@@2P6AXXZEA@@3P6AXXZEA
CRT$XCU	ENDS
xdata	SEGMENT
$unwind$?metaObject@QtQQ_Server@@UEBAPEBUQMetaObject@@XZ DD 010901H
	DD	06209H
$unwind$?qt_metacast@QtQQ_Server@@UEAAPEAXPEBD@Z DD 010e01H
	DD	0420eH
$unwind$?qt_metacall@QtQQ_Server@@UEAAHW4Call@QMetaObject@@HPEAPEAX@Z DD 011701H
	DD	04217H
$unwind$?qt_static_metacall@QtQQ_Server@@CAXPEAVQObject@@W4Call@QMetaObject@@HPEAPEAX@Z DD 011701H
	DD	06217H
xdata	ENDS
; Function compile flags: /Odtp
;	COMDAT ??__E?staticMetaObject@QtQQ_Server@@2UQMetaObject@@B@@YAXXZ
text$di	SEGMENT
??__E?staticMetaObject@QtQQ_Server@@2UQMetaObject@@B@@YAXXZ PROC ; `dynamic initializer for 'QtQQ_Server::staticMetaObject'', COMDAT
; File d:\qt_workspace\qtqq_server\qtqq_server\x64\debug\moc\moc_qtqq_server.cpp
; Line 108
	mov	rax, QWORD PTR __imp_?staticMetaObject@QDialog@@2UQMetaObject@@B
	mov	QWORD PTR ?staticMetaObject@QtQQ_Server@@2UQMetaObject@@B, rax
	lea	rax, OFFSET FLAT:?qt_meta_stringdata_QtQQ_Server@@3Uqt_meta_stringdata_QtQQ_Server_t@@B
	mov	QWORD PTR ?staticMetaObject@QtQQ_Server@@2UQMetaObject@@B+8, rax
; Line 109
	lea	rax, OFFSET FLAT:?qt_meta_data_QtQQ_Server@@3QBIB
	mov	QWORD PTR ?staticMetaObject@QtQQ_Server@@2UQMetaObject@@B+16, rax
	lea	rax, OFFSET FLAT:?qt_static_metacall@QtQQ_Server@@CAXPEAVQObject@@W4Call@QMetaObject@@HPEAPEAX@Z ; QtQQ_Server::qt_static_metacall
	mov	QWORD PTR ?staticMetaObject@QtQQ_Server@@2UQMetaObject@@B+24, rax
	mov	QWORD PTR ?staticMetaObject@QtQQ_Server@@2UQMetaObject@@B+32, 0
	mov	QWORD PTR ?staticMetaObject@QtQQ_Server@@2UQMetaObject@@B+40, 0
	ret	0
??__E?staticMetaObject@QtQQ_Server@@2UQMetaObject@@B@@YAXXZ ENDP ; `dynamic initializer for 'QtQQ_Server::staticMetaObject''
text$di	ENDS
; Function compile flags: /Odtp
_TEXT	SEGMENT
tv69 = 32
_t$1 = 40
_o$ = 64
_c$ = 72
_id$ = 80
_a$ = 88
?qt_static_metacall@QtQQ_Server@@CAXPEAVQObject@@W4Call@QMetaObject@@HPEAPEAX@Z PROC ; QtQQ_Server::qt_static_metacall
; File d:\qt_workspace\qtqq_server\qtqq_server\x64\debug\moc\moc_qtqq_server.cpp
; Line 90
$LN15:
	mov	QWORD PTR [rsp+32], r9
	mov	DWORD PTR [rsp+24], r8d
	mov	DWORD PTR [rsp+16], edx
	mov	QWORD PTR [rsp+8], rcx
	sub	rsp, 56					; 00000038H
; Line 91
	cmp	DWORD PTR _c$[rsp], 0
	jne	$LN4@qt_static_
; Line 92
	mov	rax, QWORD PTR _o$[rsp]
	mov	QWORD PTR _t$1[rsp], rax
; Line 94
	mov	eax, DWORD PTR _id$[rsp]
	mov	DWORD PTR tv69[rsp], eax
	cmp	DWORD PTR tv69[rsp], 6
	ja	SHORT $LN12@qt_static_
	movsxd	rax, DWORD PTR tv69[rsp]
	lea	rcx, OFFSET FLAT:__ImageBase
	mov	eax, DWORD PTR $LN14@qt_static_[rcx+rax*4]
	add	rax, rcx
	jmp	rax
$LN5@qt_static_:
; Line 95
	mov	eax, 8
	imul	rax, rax, 1
	mov	rcx, QWORD PTR _a$[rsp]
	mov	rdx, QWORD PTR [rcx+rax]
	mov	rcx, QWORD PTR _t$1[rsp]
	call	?onUDPbroadMsg@QtQQ_Server@@AEAAXAEAVQByteArray@@@Z ; QtQQ_Server::onUDPbroadMsg
	jmp	SHORT $LN2@qt_static_
$LN6@qt_static_:
; Line 96
	mov	rcx, QWORD PTR _t$1[rsp]
	call	?onRefresh@QtQQ_Server@@AEAAXXZ		; QtQQ_Server::onRefresh
	jmp	SHORT $LN2@qt_static_
$LN7@qt_static_:
; Line 97
	mov	rcx, QWORD PTR _t$1[rsp]
	call	?on_queryDepartmentBtn_clicked@QtQQ_Server@@AEAAXXZ ; QtQQ_Server::on_queryDepartmentBtn_clicked
	jmp	SHORT $LN2@qt_static_
$LN8@qt_static_:
; Line 98
	mov	rcx, QWORD PTR _t$1[rsp]
	call	?on_queryIDBtn_clicked@QtQQ_Server@@AEAAXXZ ; QtQQ_Server::on_queryIDBtn_clicked
	jmp	SHORT $LN2@qt_static_
$LN9@qt_static_:
; Line 99
	mov	rcx, QWORD PTR _t$1[rsp]
	call	?on_logoutBtn_clicked@QtQQ_Server@@AEAAXXZ ; QtQQ_Server::on_logoutBtn_clicked
	jmp	SHORT $LN2@qt_static_
$LN10@qt_static_:
; Line 100
	mov	rcx, QWORD PTR _t$1[rsp]
	call	?on_selectPictureBtn_clicked@QtQQ_Server@@AEAAXXZ ; QtQQ_Server::on_selectPictureBtn_clicked
	jmp	SHORT $LN2@qt_static_
$LN11@qt_static_:
; Line 101
	mov	rcx, QWORD PTR _t$1[rsp]
	call	?on_addBtn_clicked@QtQQ_Server@@AEAAXXZ	; QtQQ_Server::on_addBtn_clicked
$LN12@qt_static_:
$LN2@qt_static_:
$LN4@qt_static_:
; Line 105
	add	rsp, 56					; 00000038H
	ret	0
$LN14@qt_static_:
	DD	$LN5@qt_static_
	DD	$LN6@qt_static_
	DD	$LN7@qt_static_
	DD	$LN8@qt_static_
	DD	$LN9@qt_static_
	DD	$LN10@qt_static_
	DD	$LN11@qt_static_
?qt_static_metacall@QtQQ_Server@@CAXPEAVQObject@@W4Call@QMetaObject@@HPEAPEAX@Z ENDP ; QtQQ_Server::qt_static_metacall
_TEXT	ENDS
; Function compile flags: /Odtp
_TEXT	SEGMENT
this$ = 48
_c$ = 56
_id$ = 64
_a$ = 72
?qt_metacall@QtQQ_Server@@UEAAHW4Call@QMetaObject@@HPEAPEAX@Z PROC ; QtQQ_Server::qt_metacall
; File d:\qt_workspace\qtqq_server\qtqq_server\x64\debug\moc\moc_qtqq_server.cpp
; Line 127
$LN9:
	mov	QWORD PTR [rsp+32], r9
	mov	DWORD PTR [rsp+24], r8d
	mov	DWORD PTR [rsp+16], edx
	mov	QWORD PTR [rsp+8], rcx
	sub	rsp, 40					; 00000028H
; Line 128
	mov	r9, QWORD PTR _a$[rsp]
	mov	r8d, DWORD PTR _id$[rsp]
	mov	edx, DWORD PTR _c$[rsp]
	mov	rcx, QWORD PTR this$[rsp]
	call	QWORD PTR __imp_?qt_metacall@QDialog@@UEAAHW4Call@QMetaObject@@HPEAPEAX@Z
	mov	DWORD PTR _id$[rsp], eax
; Line 129
	cmp	DWORD PTR _id$[rsp], 0
	jge	SHORT $LN2@qt_metacal
; Line 130
	mov	eax, DWORD PTR _id$[rsp]
	jmp	SHORT $LN1@qt_metacal
$LN2@qt_metacal:
; Line 131
	cmp	DWORD PTR _c$[rsp], 0
	jne	SHORT $LN3@qt_metacal
; Line 132
	cmp	DWORD PTR _id$[rsp], 7
	jge	SHORT $LN5@qt_metacal
; Line 133
	mov	r9, QWORD PTR _a$[rsp]
	mov	r8d, DWORD PTR _id$[rsp]
	mov	edx, DWORD PTR _c$[rsp]
	mov	rcx, QWORD PTR this$[rsp]
	call	?qt_static_metacall@QtQQ_Server@@CAXPEAVQObject@@W4Call@QMetaObject@@HPEAPEAX@Z ; QtQQ_Server::qt_static_metacall
$LN5@qt_metacal:
; Line 134
	mov	eax, DWORD PTR _id$[rsp]
	sub	eax, 7
	mov	DWORD PTR _id$[rsp], eax
	jmp	SHORT $LN4@qt_metacal
$LN3@qt_metacal:
; Line 135
	cmp	DWORD PTR _c$[rsp], 12
	jne	SHORT $LN6@qt_metacal
; Line 136
	cmp	DWORD PTR _id$[rsp], 7
	jge	SHORT $LN7@qt_metacal
; Line 137
	mov	eax, 8
	imul	rax, rax, 0
	mov	rcx, QWORD PTR _a$[rsp]
	mov	rax, QWORD PTR [rcx+rax]
	mov	DWORD PTR [rax], -1
$LN7@qt_metacal:
; Line 138
	mov	eax, DWORD PTR _id$[rsp]
	sub	eax, 7
	mov	DWORD PTR _id$[rsp], eax
$LN6@qt_metacal:
$LN4@qt_metacal:
; Line 140
	mov	eax, DWORD PTR _id$[rsp]
$LN1@qt_metacal:
; Line 141
	add	rsp, 40					; 00000028H
	ret	0
?qt_metacall@QtQQ_Server@@UEAAHW4Call@QMetaObject@@HPEAPEAX@Z ENDP ; QtQQ_Server::qt_metacall
_TEXT	ENDS
; Function compile flags: /Odtp
_TEXT	SEGMENT
this$ = 48
_clname$ = 56
?qt_metacast@QtQQ_Server@@UEAAPEAXPEBD@Z PROC		; QtQQ_Server::qt_metacast
; File d:\qt_workspace\qtqq_server\qtqq_server\x64\debug\moc\moc_qtqq_server.cpp
; Line 119
$LN5:
	mov	QWORD PTR [rsp+16], rdx
	mov	QWORD PTR [rsp+8], rcx
	sub	rsp, 40					; 00000028H
; Line 120
	cmp	QWORD PTR _clname$[rsp], 0
	jne	SHORT $LN2@qt_metacas
	xor	eax, eax
	jmp	SHORT $LN1@qt_metacas
$LN2@qt_metacas:
; Line 121
	lea	rdx, OFFSET FLAT:?qt_meta_stringdata_QtQQ_Server@@3Uqt_meta_stringdata_QtQQ_Server_t@@B+264
	mov	rcx, QWORD PTR _clname$[rsp]
	call	strcmp
	test	eax, eax
	jne	SHORT $LN3@qt_metacas
; Line 122
	mov	rax, QWORD PTR this$[rsp]
	jmp	SHORT $LN1@qt_metacas
$LN3@qt_metacas:
; Line 123
	mov	rdx, QWORD PTR _clname$[rsp]
	mov	rcx, QWORD PTR this$[rsp]
	call	QWORD PTR __imp_?qt_metacast@QDialog@@UEAAPEAXPEBD@Z
$LN1@qt_metacas:
; Line 124
	add	rsp, 40					; 00000028H
	ret	0
?qt_metacast@QtQQ_Server@@UEAAPEAXPEBD@Z ENDP		; QtQQ_Server::qt_metacast
_TEXT	ENDS
; Function compile flags: /Odtp
_TEXT	SEGMENT
tv82 = 32
this$ = 64
?metaObject@QtQQ_Server@@UEBAPEBUQMetaObject@@XZ PROC	; QtQQ_Server::metaObject
; File d:\qt_workspace\qtqq_server\qtqq_server\x64\debug\moc\moc_qtqq_server.cpp
; Line 114
$LN5:
	mov	QWORD PTR [rsp+8], rcx
	sub	rsp, 56					; 00000038H
; Line 115
	mov	rax, QWORD PTR this$[rsp]
	add	rax, 8
	mov	rcx, rax
	call	??C?$QScopedPointer@VQObjectData@@U?$QScopedPointerDeleter@VQObjectData@@@@@@QEBAPEAVQObjectData@@XZ ; QScopedPointer<QObjectData,QScopedPointerDeleter<QObjectData> >::operator->
	cmp	QWORD PTR [rax+40], 0
	je	SHORT $LN3@metaObject
	mov	rax, QWORD PTR this$[rsp]
	add	rax, 8
	mov	rcx, rax
	call	??C?$QScopedPointer@VQObjectData@@U?$QScopedPointerDeleter@VQObjectData@@@@@@QEBAPEAVQObjectData@@XZ ; QScopedPointer<QObjectData,QScopedPointerDeleter<QObjectData> >::operator->
	mov	rcx, rax
	call	QWORD PTR __imp_?dynamicMetaObject@QObjectData@@QEBAPEAUQMetaObject@@XZ
	mov	QWORD PTR tv82[rsp], rax
	jmp	SHORT $LN4@metaObject
$LN3@metaObject:
	lea	rax, OFFSET FLAT:?staticMetaObject@QtQQ_Server@@2UQMetaObject@@B ; QtQQ_Server::staticMetaObject
	mov	QWORD PTR tv82[rsp], rax
$LN4@metaObject:
	mov	rax, QWORD PTR tv82[rsp]
; Line 116
	add	rsp, 56					; 00000038H
	ret	0
?metaObject@QtQQ_Server@@UEBAPEBUQMetaObject@@XZ ENDP	; QtQQ_Server::metaObject
_TEXT	ENDS
; Function compile flags: /Odtp
;	COMDAT ??C?$QScopedPointer@VQObjectData@@U?$QScopedPointerDeleter@VQObjectData@@@@@@QEBAPEAVQObjectData@@XZ
_TEXT	SEGMENT
this$ = 8
??C?$QScopedPointer@VQObjectData@@U?$QScopedPointerDeleter@VQObjectData@@@@@@QEBAPEAVQObjectData@@XZ PROC ; QScopedPointer<QObjectData,QScopedPointerDeleter<QObjectData> >::operator->, COMDAT
; File e:\qt\5.9.6\msvc2017_64\include\qtcore\qscopedpointer.h
; Line 117
	mov	QWORD PTR [rsp+8], rcx
; Line 118
	mov	rax, QWORD PTR this$[rsp]
	mov	rax, QWORD PTR [rax]
; Line 119
	ret	0
??C?$QScopedPointer@VQObjectData@@U?$QScopedPointerDeleter@VQObjectData@@@@@@QEBAPEAVQObjectData@@XZ ENDP ; QScopedPointer<QObjectData,QScopedPointerDeleter<QObjectData> >::operator->
_TEXT	ENDS
; Function compile flags: /Odtp
;	COMDAT ?__empty_global_delete@@YAXPEAX_K@Z
_TEXT	SEGMENT
__formal$ = 8
__formal$ = 16
?__empty_global_delete@@YAXPEAX_K@Z PROC		; __empty_global_delete, COMDAT
; File d:\qt_workspace\qtqq_server\qtqq_server\x64\debug\moc\moc_qtqq_server.cpp
; Line 144
	mov	QWORD PTR [rsp+16], rdx
	mov	QWORD PTR [rsp+8], rcx
	ret	0
?__empty_global_delete@@YAXPEAX_K@Z ENDP		; __empty_global_delete
_TEXT	ENDS
; Function compile flags: /Odtp
;	COMDAT ?__empty_global_delete@@YAXPEAX@Z
_TEXT	SEGMENT
__formal$ = 8
?__empty_global_delete@@YAXPEAX@Z PROC			; __empty_global_delete, COMDAT
; File d:\qt_workspace\qtqq_server\qtqq_server\x64\debug\moc\moc_qtqq_server.cpp
; Line 144
	mov	QWORD PTR [rsp+8], rcx
	ret	0
?__empty_global_delete@@YAXPEAX@Z ENDP			; __empty_global_delete
_TEXT	ENDS
END
