; Listing generated by Microsoft (R) Optimizing Compiler Version 19.16.27048.0 

include listing.inc

INCLUDELIB MSVCRTD
INCLUDELIB OLDNAMES

CONST	SEGMENT
$SG123413 DB	'e:\qt\5.9.6\msvc2017_64\include\qtcore\qmetatype.h', 00H
	ORG $+13
$SG123414 DB	'qRegisterNormalizedMetaType was called with a not normal'
	DB	'ized type name, please call qRegisterMetaType instead.', 00H
	ORG $+1
$SG123415 DB	'qRegisterNormalizedMetaType', 00H
	ORG $+4
$SG123708 DB	'e:\qt\5.9.6\msvc2017_64\include\qtcore\qmetatype.h', 00H
	ORG $+13
$SG123709 DB	'qRegisterNormalizedMetaType was called with a not normal'
	DB	'ized type name, please call qRegisterMetaType instead.', 00H
	ORG $+1
$SG123710 DB	'qRegisterNormalizedMetaType', 00H
	ORG $+4
$SG124003 DB	'e:\qt\5.9.6\msvc2017_64\include\qtcore\qmetatype.h', 00H
	ORG $+13
$SG124004 DB	'qRegisterNormalizedMetaType was called with a not normal'
	DB	'ized type name, please call qRegisterMetaType instead.', 00H
	ORG $+1
$SG124005 DB	'qRegisterNormalizedMetaType', 00H
	ORG $+4
$SG124790 DB	'e:\qt\5.9.6\msvc2017_64\include\qtcore\qmetatype.h', 00H
	ORG $+13
$SG124791 DB	'qRegisterNormalizedMetaType was called with a not normal'
	DB	'ized type name, please call qRegisterMetaType instead.', 00H
	ORG $+1
$SG124792 DB	'qRegisterNormalizedMetaType', 00H
	ORG $+4
$SG125133 DB	'e:\qt\5.9.6\msvc2017_64\include\qtcore\qmetatype.h', 00H
	ORG $+13
$SG125134 DB	'qRegisterNormalizedMetaType was called with a not normal'
	DB	'ized type name, please call qRegisterMetaType instead.', 00H
	ORG $+1
$SG125135 DB	'qRegisterNormalizedMetaType', 00H
	ORG $+4
?qt_meta_stringdata_TcpServer@@3Uqt_meta_stringdata_TcpServer_t@@B DD 0ffffffffH ; qt_meta_stringdata_TcpServer
	DD	09H
	DD	00H
	ORG $+4
	DQ	00000000000000c0H
	DD	0ffffffffH
	DD	011H
	DD	00H
	ORG $+4
	DQ	00000000000000b2H
	DD	0ffffffffH
	DD	00H
	DD	00H
	ORG $+4
	DQ	00000000000000acH
	DD	0ffffffffH
	DD	0bH
	DD	00H
	ORG $+4
	DQ	0000000000000095H
	DD	0ffffffffH
	DD	014H
	DD	00H
	ORG $+4
	DQ	0000000000000089H
	DD	0ffffffffH
	DD	08H
	DD	00H
	ORG $+4
	DQ	0000000000000086H
	DD	0ffffffffH
	DD	0aH
	DD	00H
	ORG $+4
	DQ	0000000000000077H
	DD	0ffffffffH
	DD	012H
	DD	00H
	ORG $+4
	DQ	000000000000006aH
	DB	054H
	DB	063H
	DB	070H
	DB	053H
	DB	065H
	DB	072H
	DB	076H
	DB	065H
	DB	072H
	DB	00H
	DB	073H
	DB	069H
	DB	067H
	DB	06eH
	DB	061H
	DB	06cH
	DB	054H
	DB	063H
	DB	070H
	DB	04dH
	DB	073H
	DB	067H
	DB	043H
	DB	06fH
	DB	06dH
	DB	065H
	DB	073H
	DB	00H
	DB	00H
	DB	051H
	DB	042H
	DB	079H
	DB	074H
	DB	065H
	DB	041H
	DB	072H
	DB	072H
	DB	061H
	DB	079H
	DB	026H
	DB	00H
	DB	053H
	DB	06fH
	DB	063H
	DB	06bH
	DB	065H
	DB	074H
	DB	044H
	DB	061H
	DB	074H
	DB	061H
	DB	050H
	DB	072H
	DB	06fH
	DB	063H
	DB	065H
	DB	073H
	DB	073H
	DB	069H
	DB	06eH
	DB	067H
	DB	00H
	DB	053H
	DB	065H
	DB	06eH
	DB	064H
	DB	044H
	DB	061H
	DB	074H
	DB	061H
	DB	00H
	DB	064H
	DB	065H
	DB	073H
	DB	063H
	DB	072H
	DB	069H
	DB	070H
	DB	074H
	DB	06fH
	DB	072H
	DB	00H
	DB	053H
	DB	06fH
	DB	063H
	DB	06bH
	DB	065H
	DB	074H
	DB	044H
	DB	069H
	DB	073H
	DB	063H
	DB	06fH
	DB	06eH
	DB	06eH
	DB	065H
	DB	063H
	DB	074H
	DB	065H
	DB	064H
	DB	00H
	ORG $+3
	ORG $+8
?qt_meta_data_TcpServer@@3QBIB DD 07H			; qt_meta_data_TcpServer
	DD	00H
	DD	00H
	DD	00H
	DD	03H
	DD	0eH
	DD	00H
	DD	00H
	DD	00H
	DD	00H
	DD	00H
	DD	00H
	DD	00H
	DD	01H
	DD	01H
	DD	01H
	DD	01dH
	DD	02H
	DD	06H
	DD	04H
	DD	02H
	DD	020H
	DD	02H
	DD	08H
	DD	07H
	DD	01H
	DD	025H
	DD	02H
	DD	08H
	DD	02bH
	DD	080000003H
	DD	02H
	DD	02bH
	DD	080000003H
	DD	02H
	DD	05H
	DD	06H
	DD	02bH
	DD	02H
	DD	06H
	DD	00H
	ORG $+4
$SG121618 DB	'e:\qt\5.9.6\msvc2017_64\include\qtcore\qmetatype.h', 00H
	ORG $+5
$SG121619 DB	'qRegisterNormalizedMetaType was called with a not normal'
	DB	'ized type name, please call qRegisterMetaType instead.', 00H
	ORG $+1
$SG121620 DB	'qRegisterNormalizedMetaType', 00H
CONST	ENDS
PUBLIC	?__empty_global_delete@@YAXPEAX@Z		; __empty_global_delete
PUBLIC	?__empty_global_delete@@YAXPEAX_K@Z		; __empty_global_delete
PUBLIC	??C?$QScopedPointer@VQObjectData@@U?$QScopedPointerDeleter@VQObjectData@@@@@@QEBAPEAVQObjectData@@XZ ; QScopedPointer<QObjectData,QScopedPointerDeleter<QObjectData> >::operator->
PUBLIC	?metaObject@TcpServer@@UEBAPEBUQMetaObject@@XZ	; TcpServer::metaObject
PUBLIC	?qt_metacast@TcpServer@@UEAAPEAXPEBD@Z		; TcpServer::qt_metacast
PUBLIC	?qt_metacall@TcpServer@@UEAAHW4Call@QMetaObject@@HPEAPEAX@Z ; TcpServer::qt_metacall
PUBLIC	?qt_static_metacall@TcpServer@@CAXPEAVQObject@@W4Call@QMetaObject@@HPEAPEAX@Z ; TcpServer::qt_static_metacall
PUBLIC	?signalTcpMsgComes@TcpServer@@QEAAXAEAVQByteArray@@@Z ; TcpServer::signalTcpMsgComes
PUBLIC	?staticMetaObject@TcpServer@@2UQMetaObject@@B	; TcpServer::staticMetaObject
EXTRN	strcmp:PROC
EXTRN	__imp_?activate@QMetaObject@@SAXPEAVQObject@@PEBU1@HPEAPEAX@Z:PROC
EXTRN	__imp_?dynamicMetaObject@QObjectData@@QEBAPEAUQMetaObject@@XZ:PROC
EXTRN	__imp_?qt_metacast@QTcpServer@@UEAAPEAXPEBD@Z:PROC
EXTRN	__imp_?qt_metacall@QTcpServer@@UEAAHW4Call@QMetaObject@@HPEAPEAX@Z:PROC
EXTRN	?SocketDataProcessing@TcpServer@@AEAAXAEAVQByteArray@@H@Z:PROC ; TcpServer::SocketDataProcessing
EXTRN	?SocketDisconnected@TcpServer@@AEAAXH@Z:PROC	; TcpServer::SocketDisconnected
EXTRN	__imp_?staticMetaObject@QTcpServer@@2UQMetaObject@@B:BYTE
_BSS	SEGMENT
?staticMetaObject@TcpServer@@2UQMetaObject@@B DB 030H DUP (?) ; TcpServer::staticMetaObject
_BSS	ENDS
pdata	SEGMENT
$pdata$?metaObject@TcpServer@@UEBAPEBUQMetaObject@@XZ DD imagerel $LN5
	DD	imagerel $LN5+88
	DD	imagerel $unwind$?metaObject@TcpServer@@UEBAPEBUQMetaObject@@XZ
$pdata$?qt_metacast@TcpServer@@UEAAPEAXPEBD@Z DD imagerel $LN5
	DD	imagerel $LN5+75
	DD	imagerel $unwind$?qt_metacast@TcpServer@@UEAAPEAXPEBD@Z
$pdata$?qt_metacall@TcpServer@@UEAAHW4Call@QMetaObject@@HPEAPEAX@Z DD imagerel $LN9
	DD	imagerel $LN9+174
	DD	imagerel $unwind$?qt_metacall@TcpServer@@UEAAHW4Call@QMetaObject@@HPEAPEAX@Z
$pdata$?qt_static_metacall@TcpServer@@CAXPEAVQObject@@W4Call@QMetaObject@@HPEAPEAX@Z DD imagerel $LN13
	DD	imagerel $LN13+264
	DD	imagerel $unwind$?qt_static_metacall@TcpServer@@CAXPEAVQObject@@W4Call@QMetaObject@@HPEAPEAX@Z
$pdata$?signalTcpMsgComes@TcpServer@@QEAAXAEAVQByteArray@@@Z DD imagerel $LN3
	DD	imagerel $LN3+64
	DD	imagerel $unwind$?signalTcpMsgComes@TcpServer@@QEAAXAEAVQByteArray@@@Z
pdata	ENDS
CRT$XCU	SEGMENT
??staticMetaObject$initializer$@TcpServer@@2P6AXXZEA@@3P6AXXZEA DQ FLAT:??__E?staticMetaObject@TcpServer@@2UQMetaObject@@B@@YAXXZ ; ??staticMetaObject$initializer$@TcpServer@@2P6AXXZEA@@3P6AXXZEA
CRT$XCU	ENDS
xdata	SEGMENT
$unwind$?metaObject@TcpServer@@UEBAPEBUQMetaObject@@XZ DD 010901H
	DD	06209H
$unwind$?qt_metacast@TcpServer@@UEAAPEAXPEBD@Z DD 010e01H
	DD	0420eH
$unwind$?qt_metacall@TcpServer@@UEAAHW4Call@QMetaObject@@HPEAPEAX@Z DD 011701H
	DD	04217H
$unwind$?qt_static_metacall@TcpServer@@CAXPEAVQObject@@W4Call@QMetaObject@@HPEAPEAX@Z DD 011701H
	DD	08217H
$unwind$?signalTcpMsgComes@TcpServer@@QEAAXAEAVQByteArray@@@Z DD 010e01H
	DD	0620eH
xdata	ENDS
; Function compile flags: /Odtp
;	COMDAT ??__E?staticMetaObject@TcpServer@@2UQMetaObject@@B@@YAXXZ
text$di	SEGMENT
??__E?staticMetaObject@TcpServer@@2UQMetaObject@@B@@YAXXZ PROC ; `dynamic initializer for 'TcpServer::staticMetaObject'', COMDAT
; File d:\qt_workspace\qtqq_server\qtqq_server\x64\debug\moc\moc_tcpserver.cpp
; Line 104
	mov	rax, QWORD PTR __imp_?staticMetaObject@QTcpServer@@2UQMetaObject@@B
	mov	QWORD PTR ?staticMetaObject@TcpServer@@2UQMetaObject@@B, rax
	lea	rax, OFFSET FLAT:?qt_meta_stringdata_TcpServer@@3Uqt_meta_stringdata_TcpServer_t@@B
	mov	QWORD PTR ?staticMetaObject@TcpServer@@2UQMetaObject@@B+8, rax
; Line 105
	lea	rax, OFFSET FLAT:?qt_meta_data_TcpServer@@3QBIB
	mov	QWORD PTR ?staticMetaObject@TcpServer@@2UQMetaObject@@B+16, rax
	lea	rax, OFFSET FLAT:?qt_static_metacall@TcpServer@@CAXPEAVQObject@@W4Call@QMetaObject@@HPEAPEAX@Z ; TcpServer::qt_static_metacall
	mov	QWORD PTR ?staticMetaObject@TcpServer@@2UQMetaObject@@B+24, rax
	mov	QWORD PTR ?staticMetaObject@TcpServer@@2UQMetaObject@@B+32, 0
	mov	QWORD PTR ?staticMetaObject@TcpServer@@2UQMetaObject@@B+40, 0
	ret	0
??__E?staticMetaObject@TcpServer@@2UQMetaObject@@B@@YAXXZ ENDP ; `dynamic initializer for 'TcpServer::staticMetaObject''
text$di	ENDS
; Function compile flags: /Odtp
_TEXT	SEGMENT
_a$ = 32
this$ = 64
_t1$ = 72
?signalTcpMsgComes@TcpServer@@QEAAXAEAVQByteArray@@@Z PROC ; TcpServer::signalTcpMsgComes
; File d:\qt_workspace\qtqq_server\qtqq_server\x64\debug\moc\moc_tcpserver.cpp
; Line 141
$LN3:
	mov	QWORD PTR [rsp+16], rdx
	mov	QWORD PTR [rsp+8], rcx
	sub	rsp, 56					; 00000038H
; Line 142
	mov	QWORD PTR _a$[rsp], 0
	mov	rax, QWORD PTR _t1$[rsp]
	mov	QWORD PTR _a$[rsp+8], rax
; Line 143
	lea	r9, QWORD PTR _a$[rsp]
	xor	r8d, r8d
	lea	rdx, OFFSET FLAT:?staticMetaObject@TcpServer@@2UQMetaObject@@B ; TcpServer::staticMetaObject
	mov	rcx, QWORD PTR this$[rsp]
	call	QWORD PTR __imp_?activate@QMetaObject@@SAXPEAVQObject@@PEBU1@HPEAPEAX@Z
; Line 144
	add	rsp, 56					; 00000038H
	ret	0
?signalTcpMsgComes@TcpServer@@QEAAXAEAVQByteArray@@@Z ENDP ; TcpServer::signalTcpMsgComes
_TEXT	ENDS
; Function compile flags: /Odtp
_TEXT	SEGMENT
tv69 = 32
_t$1 = 40
result$2 = 48
_o$ = 80
_c$ = 88
_id$ = 96
_a$ = 104
?qt_static_metacall@TcpServer@@CAXPEAVQObject@@W4Call@QMetaObject@@HPEAPEAX@Z PROC ; TcpServer::qt_static_metacall
; File d:\qt_workspace\qtqq_server\qtqq_server\x64\debug\moc\moc_tcpserver.cpp
; Line 81
$LN13:
	mov	QWORD PTR [rsp+32], r9
	mov	DWORD PTR [rsp+24], r8d
	mov	DWORD PTR [rsp+16], edx
	mov	QWORD PTR [rsp+8], rcx
	sub	rsp, 72					; 00000048H
; Line 82
	cmp	DWORD PTR _c$[rsp], 0
	jne	$LN4@qt_static_
; Line 83
	mov	rax, QWORD PTR _o$[rsp]
	mov	QWORD PTR _t$1[rsp], rax
; Line 85
	mov	eax, DWORD PTR _id$[rsp]
	mov	DWORD PTR tv69[rsp], eax
	cmp	DWORD PTR tv69[rsp], 0
	je	SHORT $LN6@qt_static_
	cmp	DWORD PTR tv69[rsp], 1
	je	SHORT $LN7@qt_static_
	cmp	DWORD PTR tv69[rsp], 2
	je	SHORT $LN8@qt_static_
	jmp	SHORT $LN9@qt_static_
$LN6@qt_static_:
; Line 86
	mov	eax, 8
	imul	rax, rax, 1
	mov	rcx, QWORD PTR _a$[rsp]
	mov	rdx, QWORD PTR [rcx+rax]
	mov	rcx, QWORD PTR _t$1[rsp]
	call	?signalTcpMsgComes@TcpServer@@QEAAXAEAVQByteArray@@@Z ; TcpServer::signalTcpMsgComes
	jmp	SHORT $LN2@qt_static_
$LN7@qt_static_:
; Line 87
	mov	eax, 8
	imul	rax, rax, 2
	mov	rcx, QWORD PTR _a$[rsp]
	mov	rax, QWORD PTR [rcx+rax]
	mov	ecx, 8
	imul	rcx, rcx, 1
	mov	r8d, DWORD PTR [rax]
	mov	rax, QWORD PTR _a$[rsp]
	mov	rdx, QWORD PTR [rax+rcx]
	mov	rcx, QWORD PTR _t$1[rsp]
	call	?SocketDataProcessing@TcpServer@@AEAAXAEAVQByteArray@@H@Z ; TcpServer::SocketDataProcessing
	jmp	SHORT $LN2@qt_static_
$LN8@qt_static_:
; Line 88
	mov	eax, 8
	imul	rax, rax, 1
	mov	rcx, QWORD PTR _a$[rsp]
	mov	rax, QWORD PTR [rcx+rax]
	mov	edx, DWORD PTR [rax]
	mov	rcx, QWORD PTR _t$1[rsp]
	call	?SocketDisconnected@TcpServer@@AEAAXH@Z	; TcpServer::SocketDisconnected
$LN9@qt_static_:
$LN2@qt_static_:
; Line 91
	jmp	SHORT $LN5@qt_static_
$LN4@qt_static_:
	cmp	DWORD PTR _c$[rsp], 10
	jne	SHORT $LN10@qt_static_
; Line 92
	mov	eax, 8
	imul	rax, rax, 0
	mov	rcx, QWORD PTR _a$[rsp]
	mov	rax, QWORD PTR [rcx+rax]
	mov	QWORD PTR result$2[rsp], rax
; Line 95
	mov	eax, 8
	imul	rax, rax, 1
	mov	rcx, QWORD PTR _a$[rsp]
	mov	rax, QWORD PTR [rcx+rax]
	lea	rcx, OFFSET FLAT:?signalTcpMsgComes@TcpServer@@QEAAXAEAVQByteArray@@@Z ; TcpServer::signalTcpMsgComes
	cmp	QWORD PTR [rax], rcx
	jne	SHORT $LN11@qt_static_
; Line 96
	mov	rax, QWORD PTR result$2[rsp]
	mov	DWORD PTR [rax], 0
$LN11@qt_static_:
$LN10@qt_static_:
$LN5@qt_static_:
; Line 101
	add	rsp, 72					; 00000048H
	ret	0
?qt_static_metacall@TcpServer@@CAXPEAVQObject@@W4Call@QMetaObject@@HPEAPEAX@Z ENDP ; TcpServer::qt_static_metacall
_TEXT	ENDS
; Function compile flags: /Odtp
_TEXT	SEGMENT
this$ = 48
_c$ = 56
_id$ = 64
_a$ = 72
?qt_metacall@TcpServer@@UEAAHW4Call@QMetaObject@@HPEAPEAX@Z PROC ; TcpServer::qt_metacall
; File d:\qt_workspace\qtqq_server\qtqq_server\x64\debug\moc\moc_tcpserver.cpp
; Line 123
$LN9:
	mov	QWORD PTR [rsp+32], r9
	mov	DWORD PTR [rsp+24], r8d
	mov	DWORD PTR [rsp+16], edx
	mov	QWORD PTR [rsp+8], rcx
	sub	rsp, 40					; 00000028H
; Line 124
	mov	r9, QWORD PTR _a$[rsp]
	mov	r8d, DWORD PTR _id$[rsp]
	mov	edx, DWORD PTR _c$[rsp]
	mov	rcx, QWORD PTR this$[rsp]
	call	QWORD PTR __imp_?qt_metacall@QTcpServer@@UEAAHW4Call@QMetaObject@@HPEAPEAX@Z
	mov	DWORD PTR _id$[rsp], eax
; Line 125
	cmp	DWORD PTR _id$[rsp], 0
	jge	SHORT $LN2@qt_metacal
; Line 126
	mov	eax, DWORD PTR _id$[rsp]
	jmp	SHORT $LN1@qt_metacal
$LN2@qt_metacal:
; Line 127
	cmp	DWORD PTR _c$[rsp], 0
	jne	SHORT $LN3@qt_metacal
; Line 128
	cmp	DWORD PTR _id$[rsp], 3
	jge	SHORT $LN5@qt_metacal
; Line 129
	mov	r9, QWORD PTR _a$[rsp]
	mov	r8d, DWORD PTR _id$[rsp]
	mov	edx, DWORD PTR _c$[rsp]
	mov	rcx, QWORD PTR this$[rsp]
	call	?qt_static_metacall@TcpServer@@CAXPEAVQObject@@W4Call@QMetaObject@@HPEAPEAX@Z ; TcpServer::qt_static_metacall
$LN5@qt_metacal:
; Line 130
	mov	eax, DWORD PTR _id$[rsp]
	sub	eax, 3
	mov	DWORD PTR _id$[rsp], eax
	jmp	SHORT $LN4@qt_metacal
$LN3@qt_metacal:
; Line 131
	cmp	DWORD PTR _c$[rsp], 12
	jne	SHORT $LN6@qt_metacal
; Line 132
	cmp	DWORD PTR _id$[rsp], 3
	jge	SHORT $LN7@qt_metacal
; Line 133
	mov	eax, 8
	imul	rax, rax, 0
	mov	rcx, QWORD PTR _a$[rsp]
	mov	rax, QWORD PTR [rcx+rax]
	mov	DWORD PTR [rax], -1
$LN7@qt_metacal:
; Line 134
	mov	eax, DWORD PTR _id$[rsp]
	sub	eax, 3
	mov	DWORD PTR _id$[rsp], eax
$LN6@qt_metacal:
$LN4@qt_metacal:
; Line 136
	mov	eax, DWORD PTR _id$[rsp]
$LN1@qt_metacal:
; Line 137
	add	rsp, 40					; 00000028H
	ret	0
?qt_metacall@TcpServer@@UEAAHW4Call@QMetaObject@@HPEAPEAX@Z ENDP ; TcpServer::qt_metacall
_TEXT	ENDS
; Function compile flags: /Odtp
_TEXT	SEGMENT
this$ = 48
_clname$ = 56
?qt_metacast@TcpServer@@UEAAPEAXPEBD@Z PROC		; TcpServer::qt_metacast
; File d:\qt_workspace\qtqq_server\qtqq_server\x64\debug\moc\moc_tcpserver.cpp
; Line 115
$LN5:
	mov	QWORD PTR [rsp+16], rdx
	mov	QWORD PTR [rsp+8], rcx
	sub	rsp, 40					; 00000028H
; Line 116
	cmp	QWORD PTR _clname$[rsp], 0
	jne	SHORT $LN2@qt_metacas
	xor	eax, eax
	jmp	SHORT $LN1@qt_metacas
$LN2@qt_metacas:
; Line 117
	lea	rdx, OFFSET FLAT:?qt_meta_stringdata_TcpServer@@3Uqt_meta_stringdata_TcpServer_t@@B+192
	mov	rcx, QWORD PTR _clname$[rsp]
	call	strcmp
	test	eax, eax
	jne	SHORT $LN3@qt_metacas
; Line 118
	mov	rax, QWORD PTR this$[rsp]
	jmp	SHORT $LN1@qt_metacas
$LN3@qt_metacas:
; Line 119
	mov	rdx, QWORD PTR _clname$[rsp]
	mov	rcx, QWORD PTR this$[rsp]
	call	QWORD PTR __imp_?qt_metacast@QTcpServer@@UEAAPEAXPEBD@Z
$LN1@qt_metacas:
; Line 120
	add	rsp, 40					; 00000028H
	ret	0
?qt_metacast@TcpServer@@UEAAPEAXPEBD@Z ENDP		; TcpServer::qt_metacast
_TEXT	ENDS
; Function compile flags: /Odtp
_TEXT	SEGMENT
tv82 = 32
this$ = 64
?metaObject@TcpServer@@UEBAPEBUQMetaObject@@XZ PROC	; TcpServer::metaObject
; File d:\qt_workspace\qtqq_server\qtqq_server\x64\debug\moc\moc_tcpserver.cpp
; Line 110
$LN5:
	mov	QWORD PTR [rsp+8], rcx
	sub	rsp, 56					; 00000038H
; Line 111
	mov	rax, QWORD PTR this$[rsp]
	add	rax, 8
	mov	rcx, rax
	call	??C?$QScopedPointer@VQObjectData@@U?$QScopedPointerDeleter@VQObjectData@@@@@@QEBAPEAVQObjectData@@XZ ; QScopedPointer<QObjectData,QScopedPointerDeleter<QObjectData> >::operator->
	cmp	QWORD PTR [rax+40], 0
	je	SHORT $LN3@metaObject
	mov	rax, QWORD PTR this$[rsp]
	add	rax, 8
	mov	rcx, rax
	call	??C?$QScopedPointer@VQObjectData@@U?$QScopedPointerDeleter@VQObjectData@@@@@@QEBAPEAVQObjectData@@XZ ; QScopedPointer<QObjectData,QScopedPointerDeleter<QObjectData> >::operator->
	mov	rcx, rax
	call	QWORD PTR __imp_?dynamicMetaObject@QObjectData@@QEBAPEAUQMetaObject@@XZ
	mov	QWORD PTR tv82[rsp], rax
	jmp	SHORT $LN4@metaObject
$LN3@metaObject:
	lea	rax, OFFSET FLAT:?staticMetaObject@TcpServer@@2UQMetaObject@@B ; TcpServer::staticMetaObject
	mov	QWORD PTR tv82[rsp], rax
$LN4@metaObject:
	mov	rax, QWORD PTR tv82[rsp]
; Line 112
	add	rsp, 56					; 00000038H
	ret	0
?metaObject@TcpServer@@UEBAPEBUQMetaObject@@XZ ENDP	; TcpServer::metaObject
_TEXT	ENDS
; Function compile flags: /Odtp
;	COMDAT ??C?$QScopedPointer@VQObjectData@@U?$QScopedPointerDeleter@VQObjectData@@@@@@QEBAPEAVQObjectData@@XZ
_TEXT	SEGMENT
this$ = 8
??C?$QScopedPointer@VQObjectData@@U?$QScopedPointerDeleter@VQObjectData@@@@@@QEBAPEAVQObjectData@@XZ PROC ; QScopedPointer<QObjectData,QScopedPointerDeleter<QObjectData> >::operator->, COMDAT
; File e:\qt\5.9.6\msvc2017_64\include\qtcore\qscopedpointer.h
; Line 117
	mov	QWORD PTR [rsp+8], rcx
; Line 118
	mov	rax, QWORD PTR this$[rsp]
	mov	rax, QWORD PTR [rax]
; Line 119
	ret	0
??C?$QScopedPointer@VQObjectData@@U?$QScopedPointerDeleter@VQObjectData@@@@@@QEBAPEAVQObjectData@@XZ ENDP ; QScopedPointer<QObjectData,QScopedPointerDeleter<QObjectData> >::operator->
_TEXT	ENDS
; Function compile flags: /Odtp
;	COMDAT ?__empty_global_delete@@YAXPEAX_K@Z
_TEXT	SEGMENT
__formal$ = 8
__formal$ = 16
?__empty_global_delete@@YAXPEAX_K@Z PROC		; __empty_global_delete, COMDAT
; File d:\qt_workspace\qtqq_server\qtqq_server\x64\debug\moc\moc_tcpserver.cpp
; Line 147
	mov	QWORD PTR [rsp+16], rdx
	mov	QWORD PTR [rsp+8], rcx
	ret	0
?__empty_global_delete@@YAXPEAX_K@Z ENDP		; __empty_global_delete
_TEXT	ENDS
; Function compile flags: /Odtp
;	COMDAT ?__empty_global_delete@@YAXPEAX@Z
_TEXT	SEGMENT
__formal$ = 8
?__empty_global_delete@@YAXPEAX@Z PROC			; __empty_global_delete, COMDAT
; File d:\qt_workspace\qtqq_server\qtqq_server\x64\debug\moc\moc_tcpserver.cpp
; Line 147
	mov	QWORD PTR [rsp+8], rcx
	ret	0
?__empty_global_delete@@YAXPEAX@Z ENDP			; __empty_global_delete
_TEXT	ENDS
END
